(lp0
Vhttp://appft1.uspto.gov/netacgi/nph-Parser?Sect1=PTO1&Sect2=HITOFF&d=PG01&p=1&u=/netahtml/PTO/srchnum.html&r=1&f=G&l=50&s1=0 .PGNR.&OS=DN/0 &RS=DN/0 
p1
aVhttp://appft1.uspto.gov/netacgi/nph-Parser?Sect1=PTO1&Sect2=HITOFF&d=PG01&p=1&u=/netahtml/PTO/srchnum.html&r=1&f=G&l=50&s1=20150316083.PGNR.&OS=DN/20150316083&RS=DN/20150316083
p2
aVhttp://appft1.uspto.gov/netacgi/nph-Parser?Sect1=PTO1&Sect2=HITOFF&d=PG01&p=1&u=/netahtml/PTO/srchnum.html&r=1&f=G&l=50&s1=20140323413.PGNR.&OS=DN/20140323413&RS=DN/20140323413
p3
aVhttp://appft1.uspto.gov/netacgi/nph-Parser?Sect1=PTO1&Sect2=HITOFF&d=PG01&p=1&u=/netahtml/PTO/srchnum.html&r=1&f=G&l=50&s1=20150226346.PGNR.&OS=DN/20150226346&RS=DN/20150226346
p4
aVhttp://appft1.uspto.gov/netacgi/nph-Parser?Sect1=PTO1&Sect2=HITOFF&d=PG01&p=1&u=/netahtml/PTO/srchnum.html&r=1&f=G&l=50&s1=20150293650.PGNR.&OS=DN/20150293650&RS=DN/20150293650
p5
aVhttp://appft1.uspto.gov/netacgi/nph-Parser?Sect1=PTO1&Sect2=HITOFF&d=PG01&p=1&u=/netahtml/PTO/srchnum.html&r=1&f=G&l=50&s1=20150284463.PGNR.&OS=DN/20150284463&RS=DN/20150284463
p6
aVhttp://appft1.uspto.gov/netacgi/nph-Parser?Sect1=PTO1&Sect2=HITOFF&d=PG01&p=1&u=/netahtml/PTO/srchnum.html&r=1&f=G&l=50&s1=20150038555.PGNR.&OS=DN/20150038555&RS=DN/20150038555
p7
aVhttp://appft1.uspto.gov/netacgi/nph-Parser?Sect1=PTO1&Sect2=HITOFF&d=PG01&p=1&u=/netahtml/PTO/srchnum.html&r=1&f=G&l=50&s1=20150297742.PGNR.&OS=DN/20150297742&RS=DN/20150297742
p8
aVhttp://appft1.uspto.gov/netacgi/nph-Parser?Sect1=PTO1&Sect2=HITOFF&d=PG01&p=1&u=/netahtml/PTO/srchnum.html&r=1&f=G&l=50&s1=20150344963.PGNR.&OS=DN/20150344963&RS=DN/20150344963
p9
aVhttp://appft1.uspto.gov/netacgi/nph-Parser?Sect1=PTO1&Sect2=HITOFF&d=PG01&p=1&u=/netahtml/PTO/srchnum.html&r=1&f=G&l=50&s1=20150346944.PGNR.&OS=DN/20150346944&RS=DN/20150346944
p10
aVhttp://appft1.uspto.gov/netacgi/nph-Parser?Sect1=PTO1&Sect2=HITOFF&d=PG01&p=1&u=/netahtml/PTO/srchnum.html&r=1&f=G&l=50&s1=0 .PGNR.&OS=DN/0 &RS=DN/0 
p11
aVhttp://appft1.uspto.gov/netacgi/nph-Parser?Sect1=PTO1&Sect2=HITOFF&d=PG01&p=1&u=/netahtml/PTO/srchnum.html&r=1&f=G&l=50&s1=0 .PGNR.&OS=DN/0 &RS=DN/0 
p12
aVhttp://appft1.uspto.gov/netacgi/nph-Parser?Sect1=PTO1&Sect2=HITOFF&d=PG01&p=1&u=/netahtml/PTO/srchnum.html&r=1&f=G&l=50&s1=20160215022.PGNR.&OS=DN/20160215022&RS=DN/20160215022
p13
aVhttp://appft1.uspto.gov/netacgi/nph-Parser?Sect1=PTO1&Sect2=HITOFF&d=PG01&p=1&u=/netahtml/PTO/srchnum.html&r=1&f=G&l=50&s1=20160272982.PGNR.&OS=DN/20160272982&RS=DN/20160272982
p14
aVhttp://appft1.uspto.gov/netacgi/nph-Parser?Sect1=PTO1&Sect2=HITOFF&d=PG01&p=1&u=/netahtml/PTO/srchnum.html&r=1&f=G&l=50&s1=20160052988.PGNR.&OS=DN/20160052988&RS=DN/20160052988
p15
aVhttp://appft1.uspto.gov/netacgi/nph-Parser?Sect1=PTO1&Sect2=HITOFF&d=PG01&p=1&u=/netahtml/PTO/srchnum.html&r=1&f=G&l=50&s1=0 .PGNR.&OS=DN/0 &RS=DN/0 
p16
aVhttp://appft1.uspto.gov/netacgi/nph-Parser?Sect1=PTO1&Sect2=HITOFF&d=PG01&p=1&u=/netahtml/PTO/srchnum.html&r=1&f=G&l=50&s1=20160102317.PGNR.&OS=DN/20160102317&RS=DN/20160102317
p17
aVhttp://appft1.uspto.gov/netacgi/nph-Parser?Sect1=PTO1&Sect2=HITOFF&d=PG01&p=1&u=/netahtml/PTO/srchnum.html&r=1&f=G&l=50&s1=20160102316.PGNR.&OS=DN/20160102316&RS=DN/20160102316
p18
aVhttp://appft1.uspto.gov/netacgi/nph-Parser?Sect1=PTO1&Sect2=HITOFF&d=PG01&p=1&u=/netahtml/PTO/srchnum.html&r=1&f=G&l=50&s1=0 .PGNR.&OS=DN/0 &RS=DN/0 
p19
aVhttp://appft1.uspto.gov/netacgi/nph-Parser?Sect1=PTO1&Sect2=HITOFF&d=PG01&p=1&u=/netahtml/PTO/srchnum.html&r=1&f=G&l=50&s1=0 .PGNR.&OS=DN/0 &RS=DN/0 
p20
aVhttp://appft1.uspto.gov/netacgi/nph-Parser?Sect1=PTO1&Sect2=HITOFF&d=PG01&p=1&u=/netahtml/PTO/srchnum.html&r=1&f=G&l=50&s1=0 .PGNR.&OS=DN/0 &RS=DN/0 
p21
aVhttp://appft1.uspto.gov/netacgi/nph-Parser?Sect1=PTO1&Sect2=HITOFF&d=PG01&p=1&u=/netahtml/PTO/srchnum.html&r=1&f=G&l=50&s1=20160168584.PGNR.&OS=DN/20160168584&RS=DN/20160168584
p22
aVhttp://appft1.uspto.gov/netacgi/nph-Parser?Sect1=PTO1&Sect2=HITOFF&d=PG01&p=1&u=/netahtml/PTO/srchnum.html&r=1&f=G&l=50&s1=0 .PGNR.&OS=DN/0 &RS=DN/0 
p23
aVhttp://appft1.uspto.gov/netacgi/nph-Parser?Sect1=PTO1&Sect2=HITOFF&d=PG01&p=1&u=/netahtml/PTO/srchnum.html&r=1&f=G&l=50&s1=0 .PGNR.&OS=DN/0 &RS=DN/0 
p24
aVhttp://appft1.uspto.gov/netacgi/nph-Parser?Sect1=PTO1&Sect2=HITOFF&d=PG01&p=1&u=/netahtml/PTO/srchnum.html&r=1&f=G&l=50&s1=0 .PGNR.&OS=DN/0 &RS=DN/0 
p25
aVhttp://appft1.uspto.gov/netacgi/nph-Parser?Sect1=PTO1&Sect2=HITOFF&d=PG01&p=1&u=/netahtml/PTO/srchnum.html&r=1&f=G&l=50&s1=0 .PGNR.&OS=DN/0 &RS=DN/0 
p26
aVhttp://appft1.uspto.gov/netacgi/nph-Parser?Sect1=PTO1&Sect2=HITOFF&d=PG01&p=1&u=/netahtml/PTO/srchnum.html&r=1&f=G&l=50&s1=20160201078.PGNR.&OS=DN/20160201078&RS=DN/20160201078
p27
aVhttp://appft1.uspto.gov/netacgi/nph-Parser?Sect1=PTO1&Sect2=HITOFF&d=PG01&p=1&u=/netahtml/PTO/srchnum.html&r=1&f=G&l=50&s1=0 .PGNR.&OS=DN/0 &RS=DN/0 
p28
aVhttp://appft1.uspto.gov/netacgi/nph-Parser?Sect1=PTO1&Sect2=HITOFF&d=PG01&p=1&u=/netahtml/PTO/srchnum.html&r=1&f=G&l=50&s1=0 .PGNR.&OS=DN/0 &RS=DN/0 
p29
aVhttp://appft1.uspto.gov/netacgi/nph-Parser?Sect1=PTO1&Sect2=HITOFF&d=PG01&p=1&u=/netahtml/PTO/srchnum.html&r=1&f=G&l=50&s1=0 .PGNR.&OS=DN/0 &RS=DN/0 
p30
aVhttp://appft1.uspto.gov/netacgi/nph-Parser?Sect1=PTO1&Sect2=HITOFF&d=PG01&p=1&u=/netahtml/PTO/srchnum.html&r=1&f=G&l=50&s1=20160216269.PGNR.&OS=DN/20160216269&RS=DN/20160216269
p31
aVhttp://appft1.uspto.gov/netacgi/nph-Parser?Sect1=PTO1&Sect2=HITOFF&d=PG01&p=1&u=/netahtml/PTO/srchnum.html&r=1&f=G&l=50&s1=0 .PGNR.&OS=DN/0 &RS=DN/0 
p32
aVhttp://appft1.uspto.gov/netacgi/nph-Parser?Sect1=PTO1&Sect2=HITOFF&d=PG01&p=1&u=/netahtml/PTO/srchnum.html&r=1&f=G&l=50&s1=20160304901.PGNR.&OS=DN/20160304901&RS=DN/20160304901
p33
aVhttp://appft1.uspto.gov/netacgi/nph-Parser?Sect1=PTO1&Sect2=HITOFF&d=PG01&p=1&u=/netahtml/PTO/srchnum.html&r=1&f=G&l=50&s1=0 .PGNR.&OS=DN/0 &RS=DN/0 
p34
aVhttp://appft1.uspto.gov/netacgi/nph-Parser?Sect1=PTO1&Sect2=HITOFF&d=PG01&p=1&u=/netahtml/PTO/srchnum.html&r=1&f=G&l=50&s1=0 .PGNR.&OS=DN/0 &RS=DN/0 
p35
aVhttp://appft1.uspto.gov/netacgi/nph-Parser?Sect1=PTO1&Sect2=HITOFF&d=PG01&p=1&u=/netahtml/PTO/srchnum.html&r=1&f=G&l=50&s1=0 .PGNR.&OS=DN/0 &RS=DN/0 
p36
aVhttp://appft1.uspto.gov/netacgi/nph-Parser?Sect1=PTO1&Sect2=HITOFF&d=PG01&p=1&u=/netahtml/PTO/srchnum.html&r=1&f=G&l=50&s1=0 .PGNR.&OS=DN/0 &RS=DN/0 
p37
aVhttp://appft1.uspto.gov/netacgi/nph-Parser?Sect1=PTO1&Sect2=HITOFF&d=PG01&p=1&u=/netahtml/PTO/srchnum.html&r=1&f=G&l=50&s1=0 .PGNR.&OS=DN/0 &RS=DN/0 
p38
aVhttp://appft1.uspto.gov/netacgi/nph-Parser?Sect1=PTO1&Sect2=HITOFF&d=PG01&p=1&u=/netahtml/PTO/srchnum.html&r=1&f=G&l=50&s1=0 .PGNR.&OS=DN/0 &RS=DN/0 
p39
aVhttp://appft1.uspto.gov/netacgi/nph-Parser?Sect1=PTO1&Sect2=HITOFF&d=PG01&p=1&u=/netahtml/PTO/srchnum.html&r=1&f=G&l=50&s1=0 .PGNR.&OS=DN/0 &RS=DN/0 
p40
aVhttp://appft1.uspto.gov/netacgi/nph-Parser?Sect1=PTO1&Sect2=HITOFF&d=PG01&p=1&u=/netahtml/PTO/srchnum.html&r=1&f=G&l=50&s1=0 .PGNR.&OS=DN/0 &RS=DN/0 
p41
aVhttps://patentscope.wipo.int/search/en/detail.jsf?docId=WO200113973
p42
aVhttps://patentscope.wipo.int/search/en/detail.jsf?docId=WO200122191
p43
aVhttps://patentscope.wipo.int/search/en/detail.jsf?docId=WO200113195
p44
aVhttps://patentscope.wipo.int/search/en/detail.jsf?docId=WO2001036300
p45
aVhttps://patentscope.wipo.int/search/en/detail.jsf?docId=WO200170579
p46
aVhttps://patentscope.wipo.int/search/en/detail.jsf?docId=WO2002034076
p47
aVhttps://patentscope.wipo.int/search/en/detail.jsf?docId=WO2002040300
p48
aVhttps://patentscope.wipo.int/search/en/detail.jsf?docId=WO2002089697
p49
aVhttps://patentscope.wipo.int/search/en/detail.jsf?docId=WO2002076642
p50
aVhttps://patentscope.wipo.int/search/en/detail.jsf?docId=WO2002051516
p51
aVhttps://patentscope.wipo.int/search/en/detail.jsf?docId=WO2002063203
p52
aVhttps://patentscope.wipo.int/search/en/detail.jsf?docId=WO2002053578
p53
aVhttps://patentscope.wipo.int/search/en/detail.jsf?docId=WO2002061640
p54
aVhttps://patentscope.wipo.int/search/en/detail.jsf?docId=WO2002059485
p55
aVhttps://patentscope.wipo.int/search/en/detail.jsf?docId=WO2002094260
p56
aVhttps://patentscope.wipo.int/search/en/detail.jsf?docId=WO2002063408
p57
aVhttps://patentscope.wipo.int/search/en/detail.jsf?docId=WO2002083086
p58
aVhttps://patentscope.wipo.int/search/en/detail.jsf?docId=WO2002074782
p59
aVhttps://patentscope.wipo.int/search/en/detail.jsf?docId=WO2002076718
p60
aVhttps://patentscope.wipo.int/search/en/detail.jsf?docId=WO2002086057
p61
aVhttps://patentscope.wipo.int/search/en/detail.jsf?docId=WO2003000001
p62
aVhttps://patentscope.wipo.int/search/en/detail.jsf?docId=WO2003026088
p63
aVhttps://patentscope.wipo.int/search/en/detail.jsf?docId=WO2003023112
p64
aVhttps://patentscope.wipo.int/search/en/detail.jsf?docId=WO2003026449
p65
aVhttps://patentscope.wipo.int/search/en/detail.jsf?docId=WO2003045624
p66
aVhttps://patentscope.wipo.int/search/en/detail.jsf?docId=WO2003045625
p67
aVhttps://patentscope.wipo.int/search/en/detail.jsf?docId=WO2003045626
p68
aVhttps://patentscope.wipo.int/search/en/detail.jsf?docId=WO2003072698
p69
aVhttps://patentscope.wipo.int/search/en/detail.jsf?docId=WO2004082412
p70
aVhttps://patentscope.wipo.int/search/en/detail.jsf?docId=WO2004051023
p71
aVhttps://patentscope.wipo.int/search/en/detail.jsf?docId=WO2004011350
p72
aVhttps://patentscope.wipo.int/search/en/detail.jsf?docId=WO2004016530
p73
aVhttps://patentscope.wipo.int/search/en/detail.jsf?docId=WO2004024058
p74
aVhttps://patentscope.wipo.int/search/en/detail.jsf?docId=WO2004056960
p75
aVhttps://patentscope.wipo.int/search/en/detail.jsf?docId=WO2004112294
p76
aVhttps://patentscope.wipo.int/search/en/detail.jsf?docId=WO2006032118
p77
aVhttps://patentscope.wipo.int/search/en/detail.jsf?docId=WO2005059209
p78
aVhttps://patentscope.wipo.int/search/en/detail.jsf?docId=WO2005041852
p79
aVhttps://patentscope.wipo.int/search/en/detail.jsf?docId=WO2005043084
p80
aVhttps://patentscope.wipo.int/search/en/detail.jsf?docId=WO2005086559
p81
aVhttps://patentscope.wipo.int/search/en/detail.jsf?docId=WO2005096805
p82
aVhttps://patentscope.wipo.int/search/en/detail.jsf?docId=WO2005107357
p83
aVhttps://patentscope.wipo.int/search/en/detail.jsf?docId=WO2006012717
p84
aVhttps://patentscope.wipo.int/search/en/detail.jsf?docId=WO2006128262
p85
aVhttps://patentscope.wipo.int/search/en/detail.jsf?docId=WO2006128264
p86
aVhttps://patentscope.wipo.int/search/en/detail.jsf?docId=WO2005122187
p87
aVhttps://patentscope.wipo.int/search/en/detail.jsf?docId=WO2007012156
p88
aVhttps://patentscope.wipo.int/search/en/detail.jsf?docId=WO2007012157
p89
aVhttps://patentscope.wipo.int/search/en/detail.jsf?docId=WO2007012158
p90
aVhttps://patentscope.wipo.int/search/en/detail.jsf?docId=WO2007012159
p91
aVhttps://patentscope.wipo.int/search/en/detail.jsf?docId=WO2007012160
p92
aVhttps://patentscope.wipo.int/search/en/detail.jsf?docId=WO2007012161
p93
aVhttps://patentscope.wipo.int/search/en/detail.jsf?docId=WO2007012162
p94
aVhttps://patentscope.wipo.int/search/en/detail.jsf?docId=WO2006135996
p95
aVhttps://patentscope.wipo.int/search/en/detail.jsf?docId=WO2007003023
p96
aVhttps://patentscope.wipo.int/search/en/detail.jsf?docId=WO2007112521
p97
aVhttps://patentscope.wipo.int/search/en/detail.jsf?docId=WO2007147227
p98
aVhttps://patentscope.wipo.int/search/en/detail.jsf?docId=WO2008144860
p99
aVhttps://patentscope.wipo.int/search/en/detail.jsf?docId=WO2011137502
p100
aVhttps://patentscope.wipo.int/search/en/detail.jsf?docId=WO200116286
p101
aVhttps://patentscope.wipo.int/search/en/detail.jsf?docId=WO200182521
p102
aVhttps://patentscope.wipo.int/search/en/detail.jsf?docId=WO2002045472
p103
aVhttps://patentscope.wipo.int/search/en/detail.jsf?docId=WO2002015842
p104
aVhttps://patentscope.wipo.int/search/en/detail.jsf?docId=WO2002000020
p105
aVhttps://patentscope.wipo.int/search/en/detail.jsf?docId=WO2002018111
p106
aVhttps://patentscope.wipo.int/search/en/detail.jsf?docId=WO2002082432
p107
aVhttps://patentscope.wipo.int/search/en/detail.jsf?docId=WO2002024946
p108
aVhttps://patentscope.wipo.int/search/en/detail.jsf?docId=WO2002023074
p109
aVhttps://patentscope.wipo.int/search/en/detail.jsf?docId=WO2002001501
p110
aVhttps://patentscope.wipo.int/search/en/detail.jsf?docId=WO2003001459
p111
aVhttps://patentscope.wipo.int/search/en/detail.jsf?docId=WO2002027422
p112
aVhttps://patentscope.wipo.int/search/en/detail.jsf?docId=WO2002028910
p113
aVhttps://patentscope.wipo.int/search/en/detail.jsf?docId=WO2002030759
p114
aVhttps://patentscope.wipo.int/search/en/detail.jsf?docId=WO2002031612
p115
aVhttps://patentscope.wipo.int/search/en/detail.jsf?docId=WO2003034297
p116
aVhttps://patentscope.wipo.int/search/en/detail.jsf?docId=WO2002019590
p117
aVhttps://patentscope.wipo.int/search/en/detail.jsf?docId=WO2002036489
p118
aVhttps://patentscope.wipo.int/search/en/detail.jsf?docId=WO2002037800
p119
aVhttps://patentscope.wipo.int/search/en/detail.jsf?docId=WO2002037729
p120
aVhttps://patentscope.wipo.int/search/en/detail.jsf?docId=WO2003022251
p121
aVhttps://patentscope.wipo.int/search/en/detail.jsf?docId=WO2002033029
p122
aVhttps://patentscope.wipo.int/search/en/detail.jsf?docId=WO2002027423
p123
aVhttps://patentscope.wipo.int/search/en/detail.jsf?docId=WO2002043648
p124
aVhttps://patentscope.wipo.int/search/en/detail.jsf?docId=WO2002047607
p125
aVhttps://patentscope.wipo.int/search/en/detail.jsf?docId=WO2002023487
p126
aVhttps://patentscope.wipo.int/search/en/detail.jsf?docId=WO2002048820
p127
aVhttps://patentscope.wipo.int/search/en/detail.jsf?docId=WO2002051408
p128
aVhttps://patentscope.wipo.int/search/en/detail.jsf?docId=WO2002053326
p129
aVhttps://patentscope.wipo.int/search/en/detail.jsf?docId=WO2002053327
p130
aVhttps://patentscope.wipo.int/search/en/detail.jsf?docId=WO2002098613
p131
aVhttps://patentscope.wipo.int/search/en/detail.jsf?docId=WO2002053328
p132
aVhttps://patentscope.wipo.int/search/en/detail.jsf?docId=WO2002053329
p133
aVhttps://patentscope.wipo.int/search/en/detail.jsf?docId=WO2002052764
p134
aVhttps://patentscope.wipo.int/search/en/detail.jsf?docId=WO2003052948
p135
aVhttps://patentscope.wipo.int/search/en/detail.jsf?docId=WO2002065681
p136
aVhttps://patentscope.wipo.int/search/en/detail.jsf?docId=WO2003039287
p137
aVhttps://patentscope.wipo.int/search/en/detail.jsf?docId=WO2002093874
p138
aVhttps://patentscope.wipo.int/search/en/detail.jsf?docId=WO2003036919
p139
aVhttps://patentscope.wipo.int/search/en/detail.jsf?docId=WO2002057407
p140
aVhttps://patentscope.wipo.int/search/en/detail.jsf?docId=WO2002057933
p141
aVhttps://patentscope.wipo.int/search/en/detail.jsf?docId=WO2003008389
p142
aVhttps://patentscope.wipo.int/search/en/detail.jsf?docId=WO2002057406
p143
aVhttps://patentscope.wipo.int/search/en/detail.jsf?docId=WO2003059928
p144
aVhttps://patentscope.wipo.int/search/en/detail.jsf?docId=WO2002062084
p145
aVhttps://patentscope.wipo.int/search/en/detail.jsf?docId=WO2002060866
p146
aVhttps://patentscope.wipo.int/search/en/detail.jsf?docId=WO2002061952
p147
aVhttps://patentscope.wipo.int/search/en/detail.jsf?docId=WO2002067594
p148
aVhttps://patentscope.wipo.int/search/en/detail.jsf?docId=WO2003067952
p149
aVhttps://patentscope.wipo.int/search/en/detail.jsf?docId=WO2002064080
p150
aVhttps://patentscope.wipo.int/search/en/detail.jsf?docId=WO2002084504
p151
aVhttps://patentscope.wipo.int/search/en/detail.jsf?docId=WO2002067437
p152
aVhttps://patentscope.wipo.int/search/en/detail.jsf?docId=WO2002068429
p153
aVhttps://patentscope.wipo.int/search/en/detail.jsf?docId=WO2002088971
p154
aVhttps://patentscope.wipo.int/search/en/detail.jsf?docId=WO2002071772
p155
aVhttps://patentscope.wipo.int/search/en/detail.jsf?docId=WO2002067943
p156
aVhttps://patentscope.wipo.int/search/en/detail.jsf?docId=WO2003047632
p157
aVhttps://patentscope.wipo.int/search/en/detail.jsf?docId=WO2002070088
p158
aVhttps://patentscope.wipo.int/search/en/detail.jsf?docId=WO2002073142
p159
aVhttps://patentscope.wipo.int/search/en/detail.jsf?docId=WO2002080011
p160
aVhttps://patentscope.wipo.int/search/en/detail.jsf?docId=WO2002072565
p161
aVhttps://patentscope.wipo.int/search/en/detail.jsf?docId=WO2002073810
p162
aVhttps://patentscope.wipo.int/search/en/detail.jsf?docId=WO2002082829
p163
aVhttps://patentscope.wipo.int/search/en/detail.jsf?docId=WO2002073461
p164
aVhttps://patentscope.wipo.int/search/en/detail.jsf?docId=WO2002076375
p165
aVhttps://patentscope.wipo.int/search/en/detail.jsf?docId=WO2002076061
p166
aVhttps://patentscope.wipo.int/search/en/detail.jsf?docId=WO2002076114
p167
aVhttps://patentscope.wipo.int/search/en/detail.jsf?docId=WO2002080418
p168
aVhttps://patentscope.wipo.int/search/en/detail.jsf?docId=WO2002077745
p169
aVhttps://patentscope.wipo.int/search/en/detail.jsf?docId=WO2002076376
p170
aVhttps://patentscope.wipo.int/search/en/detail.jsf?docId=WO2002080431
p171
aVhttps://patentscope.wipo.int/search/en/detail.jsf?docId=WO2002080585
p172
aVhttps://patentscope.wipo.int/search/en/detail.jsf?docId=WO2002080391
p173
aVhttps://patentscope.wipo.int/search/en/detail.jsf?docId=WO2002080439
p174
aVhttps://patentscope.wipo.int/search/en/detail.jsf?docId=WO2002080432
p175
aVhttps://patentscope.wipo.int/search/en/detail.jsf?docId=WO2002082108
p176
aVhttps://patentscope.wipo.int/search/en/detail.jsf?docId=WO2002084500
p177
aVhttps://patentscope.wipo.int/search/en/detail.jsf?docId=WO2003084541
p178
aVhttps://patentscope.wipo.int/search/en/detail.jsf?docId=WO2002082781
p179
aVhttps://patentscope.wipo.int/search/en/detail.jsf?docId=WO2003005336
p180
aVhttps://patentscope.wipo.int/search/en/detail.jsf?docId=WO2003087971
p181
aVhttps://patentscope.wipo.int/search/en/detail.jsf?docId=WO2003088513
p182
aVhttps://patentscope.wipo.int/search/en/detail.jsf?docId=WO2002083634
p183
aVhttps://patentscope.wipo.int/search/en/detail.jsf?docId=WO2002093946
p184
aVhttps://patentscope.wipo.int/search/en/detail.jsf?docId=WO2003063976
p185
aVhttps://patentscope.wipo.int/search/en/detail.jsf?docId=WO2002101966
p186
aVhttps://patentscope.wipo.int/search/en/detail.jsf?docId=WO2002089337
p187
aVhttps://patentscope.wipo.int/search/en/detail.jsf?docId=WO2002089335
p188
aVhttps://patentscope.wipo.int/search/en/detail.jsf?docId=WO2002091199
p189
aVhttps://patentscope.wipo.int/search/en/detail.jsf?docId=WO2002089505
p190
aVhttps://patentscope.wipo.int/search/en/detail.jsf?docId=WO2002089342
p191
aVhttps://patentscope.wipo.int/search/en/detail.jsf?docId=WO2003091261
p192
aVhttps://patentscope.wipo.int/search/en/detail.jsf?docId=WO2002089338
p193
aVhttps://patentscope.wipo.int/search/en/detail.jsf?docId=WO2002089376
p194
aVhttps://patentscope.wipo.int/search/en/detail.jsf?docId=WO2002093595
p195
aVhttps://patentscope.wipo.int/search/en/detail.jsf?docId=WO2002091100
p196
aVhttps://patentscope.wipo.int/search/en/detail.jsf?docId=WO2003092492
p197
aVhttps://patentscope.wipo.int/search/en/detail.jsf?docId=WO2003059751
p198
aVhttps://patentscope.wipo.int/search/en/detail.jsf?docId=WO2002098006
p199
aVhttps://patentscope.wipo.int/search/en/detail.jsf?docId=WO2002093290
p200
aVhttps://patentscope.wipo.int/search/en/detail.jsf?docId=WO2002097553
p201
aVhttps://patentscope.wipo.int/search/en/detail.jsf?docId=WO2002093556
p202
aVhttps://patentscope.wipo.int/search/en/detail.jsf?docId=WO2002093551
p203
aVhttps://patentscope.wipo.int/search/en/detail.jsf?docId=WO2003007870
p204
aVhttps://patentscope.wipo.int/search/en/detail.jsf?docId=WO2002093809
p205
aVhttps://patentscope.wipo.int/search/en/detail.jsf?docId=WO2002096006
p206
aVhttps://patentscope.wipo.int/search/en/detail.jsf?docId=WO2002100125
p207
aVhttps://patentscope.wipo.int/search/en/detail.jsf?docId=WO2002094828
p208
aVhttps://patentscope.wipo.int/search/en/detail.jsf?docId=WO2002094742
p209
aVhttps://patentscope.wipo.int/search/en/detail.jsf?docId=WO2002096135
p210
aVhttps://patentscope.wipo.int/search/en/detail.jsf?docId=WO2002094773
p211
aVhttps://patentscope.wipo.int/search/en/detail.jsf?docId=WO2002094127
p212
aVhttps://patentscope.wipo.int/search/en/detail.jsf?docId=WO2003005216
p213
aVhttps://patentscope.wipo.int/search/en/detail.jsf?docId=WO2002101970
p214
aVhttps://patentscope.wipo.int/search/en/detail.jsf?docId=WO2003003138
p215
aVhttps://patentscope.wipo.int/search/en/detail.jsf?docId=WO2002100165
p216
aVhttps://patentscope.wipo.int/search/en/detail.jsf?docId=WO2002097860
p217
aVhttps://patentscope.wipo.int/search/en/detail.jsf?docId=WO2002096533
p218
aVhttps://patentscope.wipo.int/search/en/detail.jsf?docId=WO2002100019
p219
aVhttps://patentscope.wipo.int/search/en/detail.jsf?docId=WO2003008160
p220
aVhttps://patentscope.wipo.int/search/en/detail.jsf?docId=WO2003008161
p221
aVhttps://patentscope.wipo.int/search/en/detail.jsf?docId=WO2003015993
p222
aVhttps://patentscope.wipo.int/search/en/detail.jsf?docId=WO2002102041
p223
aVhttps://patentscope.wipo.int/search/en/detail.jsf?docId=WO2002101718
p224
aVhttps://patentscope.wipo.int/search/en/detail.jsf?docId=WO2002103615
p225
aVhttps://patentscope.wipo.int/search/en/detail.jsf?docId=WO2002101482
p226
aVhttps://patentscope.wipo.int/search/en/detail.jsf?docId=WO2002103963
p227
aVhttps://patentscope.wipo.int/search/en/detail.jsf?docId=WO2002076003
p228
aVhttps://patentscope.wipo.int/search/en/detail.jsf?docId=WO2002073533
p229
aVhttps://patentscope.wipo.int/search/en/detail.jsf?docId=WO2002071626
p230
aVhttps://patentscope.wipo.int/search/en/detail.jsf?docId=WO2002101323
p231
aVhttps://patentscope.wipo.int/search/en/detail.jsf?docId=WO2002072862
p232
aVhttps://patentscope.wipo.int/search/en/detail.jsf?docId=WO2003001674
p233
aVhttps://patentscope.wipo.int/search/en/detail.jsf?docId=WO2002103459
p234
aVhttps://patentscope.wipo.int/search/en/detail.jsf?docId=WO2003074396
p235
aVhttps://patentscope.wipo.int/search/en/detail.jsf?docId=WO2002102481
p236
aVhttps://patentscope.wipo.int/search/en/detail.jsf?docId=WO2003001675
p237
aVhttps://patentscope.wipo.int/search/en/detail.jsf?docId=WO2003007588
p238
aVhttps://patentscope.wipo.int/search/en/detail.jsf?docId=WO2003003610
p239
aVhttps://patentscope.wipo.int/search/en/detail.jsf?docId=WO2002103630
p240
aVhttps://patentscope.wipo.int/search/en/detail.jsf?docId=WO2003003639
p241
aVhttps://patentscope.wipo.int/search/en/detail.jsf?docId=WO2003001681
p242
aVhttps://patentscope.wipo.int/search/en/detail.jsf?docId=WO2002084153
p243
aVhttps://patentscope.wipo.int/search/en/detail.jsf?docId=WO2003003656
p244
aVhttps://patentscope.wipo.int/search/en/detail.jsf?docId=WO2003005629
p245
aVhttps://patentscope.wipo.int/search/en/detail.jsf?docId=WO2003003213
p246
aVhttps://patentscope.wipo.int/search/en/detail.jsf?docId=WO2003003236
p247
aVhttps://patentscope.wipo.int/search/en/detail.jsf?docId=WO2003008391
p248
aVhttps://patentscope.wipo.int/search/en/detail.jsf?docId=WO2003007872
p249
aVhttps://patentscope.wipo.int/search/en/detail.jsf?docId=WO2003010326
p250
aVhttps://patentscope.wipo.int/search/en/detail.jsf?docId=WO2003009261
p251
aVhttps://patentscope.wipo.int/search/en/detail.jsf?docId=WO2003013006
p252
aVhttps://patentscope.wipo.int/search/en/detail.jsf?docId=WO2003016465
p253
aVhttps://patentscope.wipo.int/search/en/detail.jsf?docId=WO2003033018
p254
aVhttps://patentscope.wipo.int/search/en/detail.jsf?docId=WO2003016971
p255
aVhttps://patentscope.wipo.int/search/en/detail.jsf?docId=WO2003019794
p256
aVhttps://patentscope.wipo.int/search/en/detail.jsf?docId=WO2003019795
p257
aVhttps://patentscope.wipo.int/search/en/detail.jsf?docId=WO2003019877
p258
aVhttps://patentscope.wipo.int/search/en/detail.jsf?docId=WO2003001435
p259
aVhttps://patentscope.wipo.int/search/en/detail.jsf?docId=WO2003019796
p260
aVhttps://patentscope.wipo.int/search/en/detail.jsf?docId=WO2003019828
p261
aVhttps://patentscope.wipo.int/search/en/detail.jsf?docId=WO2003019797
p262
aVhttps://patentscope.wipo.int/search/en/detail.jsf?docId=WO2003019319
p263
aVhttps://patentscope.wipo.int/search/en/detail.jsf?docId=WO2003019953
p264
aVhttps://patentscope.wipo.int/search/en/detail.jsf?docId=WO2003021568
p265
aVhttps://patentscope.wipo.int/search/en/detail.jsf?docId=WO2003022172
p266
aVhttps://patentscope.wipo.int/search/en/detail.jsf?docId=WO2003027940
p267
aVhttps://patentscope.wipo.int/search/en/detail.jsf?docId=WO2003029946
p268
aVhttps://patentscope.wipo.int/search/en/detail.jsf?docId=WO2003026138
p269
aVhttps://patentscope.wipo.int/search/en/detail.jsf?docId=WO2003032894
p270
aVhttps://patentscope.wipo.int/search/en/detail.jsf?docId=WO2003032003
p271
aVhttps://patentscope.wipo.int/search/en/detail.jsf?docId=WO2003030000
p272
aVhttps://patentscope.wipo.int/search/en/detail.jsf?docId=WO2003038993
p273
aVhttps://patentscope.wipo.int/search/en/detail.jsf?docId=WO2003030399
p274
aVhttps://patentscope.wipo.int/search/en/detail.jsf?docId=WO2003029911
p275
aVhttps://patentscope.wipo.int/search/en/detail.jsf?docId=WO2003032500
p276
aVhttps://patentscope.wipo.int/search/en/detail.jsf?docId=WO2003030429
p277
aVhttps://patentscope.wipo.int/search/en/detail.jsf?docId=WO2003032161
p278
aVhttps://patentscope.wipo.int/search/en/detail.jsf?docId=WO2003041422
p279
aVhttps://patentscope.wipo.int/search/en/detail.jsf?docId=WO2003019320
p280
aVhttps://patentscope.wipo.int/search/en/detail.jsf?docId=WO2003001770
p281
aVhttps://patentscope.wipo.int/search/en/detail.jsf?docId=WO2003034408
p282
aVhttps://patentscope.wipo.int/search/en/detail.jsf?docId=WO2003043355
p283
aVhttps://patentscope.wipo.int/search/en/detail.jsf?docId=WO2003039000
p284
aVhttps://patentscope.wipo.int/search/en/detail.jsf?docId=WO2003034409
p285
aVhttps://patentscope.wipo.int/search/en/detail.jsf?docId=WO2003034650
p286
aVhttps://patentscope.wipo.int/search/en/detail.jsf?docId=WO2003039009
p287
aVhttps://patentscope.wipo.int/search/en/detail.jsf?docId=WO2003038542
p288
aVhttps://patentscope.wipo.int/search/en/detail.jsf?docId=WO2003019321
p289
aVhttps://patentscope.wipo.int/search/en/detail.jsf?docId=WO2003042852
p290
aVhttps://patentscope.wipo.int/search/en/detail.jsf?docId=WO2003044966
p291
aVhttps://patentscope.wipo.int/search/en/detail.jsf?docId=WO2003049146
p292
aVhttps://patentscope.wipo.int/search/en/detail.jsf?docId=WO2003052652
p293
aVhttps://patentscope.wipo.int/search/en/detail.jsf?docId=WO2003052618
p294
aVhttps://patentscope.wipo.int/search/en/detail.jsf?docId=WO2004048965
p295
aVhttps://patentscope.wipo.int/search/en/detail.jsf?docId=WO2003056717
p296
aVhttps://patentscope.wipo.int/search/en/detail.jsf?docId=WO2003054720
p297
aVhttps://patentscope.wipo.int/search/en/detail.jsf?docId=WO2003054654
p298
aVhttps://patentscope.wipo.int/search/en/detail.jsf?docId=WO2003054712
p299
aVhttps://patentscope.wipo.int/search/en/detail.jsf?docId=WO2003053031
p300
aVhttps://patentscope.wipo.int/search/en/detail.jsf?docId=WO2003056709
p301
aVhttps://patentscope.wipo.int/search/en/detail.jsf?docId=WO2003058988
p302
aVhttps://patentscope.wipo.int/search/en/detail.jsf?docId=WO2003061058
p303
aVhttps://patentscope.wipo.int/search/en/detail.jsf?docId=WO2003061266
p304
aVhttps://patentscope.wipo.int/search/en/detail.jsf?docId=WO2003071817
p305
aVhttps://patentscope.wipo.int/search/en/detail.jsf?docId=WO2003071691
p306
aVhttps://patentscope.wipo.int/search/en/detail.jsf?docId=WO2003075496
p307
aVhttps://patentscope.wipo.int/search/en/detail.jsf?docId=WO2003075115
p308
aVhttps://patentscope.wipo.int/search/en/detail.jsf?docId=WO2003097714
p309
aVhttps://patentscope.wipo.int/search/en/detail.jsf?docId=WO2003077052
p310
aVhttps://patentscope.wipo.int/search/en/detail.jsf?docId=WO2003081787
p311
aVhttps://patentscope.wipo.int/search/en/detail.jsf?docId=WO2004070765
p312
aVhttps://patentscope.wipo.int/search/en/detail.jsf?docId=WO2003079681
p313
aVhttps://patentscope.wipo.int/search/en/detail.jsf?docId=WO2003069425
p314
aVhttps://patentscope.wipo.int/search/en/detail.jsf?docId=WO2003084253
p315
aVhttps://patentscope.wipo.int/search/en/detail.jsf?docId=WO2003081267
p316
aVhttps://patentscope.wipo.int/search/en/detail.jsf?docId=WO2003032775
p317
aVhttps://patentscope.wipo.int/search/en/detail.jsf?docId=WO2003085853
p318
aVhttps://patentscope.wipo.int/search/en/detail.jsf?docId=WO2003091891
p319
aVhttps://patentscope.wipo.int/search/en/detail.jsf?docId=WO2003083277
p320
aVhttps://patentscope.wipo.int/search/en/detail.jsf?docId=WO2003082660
p321
aVhttps://patentscope.wipo.int/search/en/detail.jsf?docId=WO2003094539
p322
aVhttps://patentscope.wipo.int/search/en/detail.jsf?docId=WO2003074827
p323
aVhttps://patentscope.wipo.int/search/en/detail.jsf?docId=WO2003094493
p324
aVhttps://patentscope.wipo.int/search/en/detail.jsf?docId=WO2003085421
p325
aVhttps://patentscope.wipo.int/search/en/detail.jsf?docId=WO2003089568
p326
aVhttps://patentscope.wipo.int/search/en/detail.jsf?docId=WO2003088063
p327
aVhttps://patentscope.wipo.int/search/en/detail.jsf?docId=WO2003090006
p328
aVhttps://patentscope.wipo.int/search/en/detail.jsf?docId=WO2003090007
p329
aVhttps://patentscope.wipo.int/search/en/detail.jsf?docId=WO2003094008
p330
aVhttps://patentscope.wipo.int/search/en/detail.jsf?docId=WO2003096713
p331
aVhttps://patentscope.wipo.int/search/en/detail.jsf?docId=WO2003096714
p332
aVhttps://patentscope.wipo.int/search/en/detail.jsf?docId=WO2003094540
p333
aVhttps://patentscope.wipo.int/search/en/detail.jsf?docId=WO2003074869
p334
aVhttps://patentscope.wipo.int/search/en/detail.jsf?docId=WO2003094541
p335
aVhttps://patentscope.wipo.int/search/en/detail.jsf?docId=WO2003094542
p336
aVhttps://patentscope.wipo.int/search/en/detail.jsf?docId=WO2003072440
p337
aVhttps://patentscope.wipo.int/search/en/detail.jsf?docId=WO2003096297
p338
aVhttps://patentscope.wipo.int/search/en/detail.jsf?docId=WO2003093921
p339
aVhttps://patentscope.wipo.int/search/en/detail.jsf?docId=WO2003094395
p340
aVhttps://patentscope.wipo.int/search/en/detail.jsf?docId=WO2003094544
p341
aVhttps://patentscope.wipo.int/search/en/detail.jsf?docId=WO2003093397
p342
aVhttps://patentscope.wipo.int/search/en/detail.jsf?docId=WO2003091900
p343
aVhttps://patentscope.wipo.int/search/en/detail.jsf?docId=WO2003094484
p344
aVhttps://patentscope.wipo.int/search/en/detail.jsf?docId=WO2003096603
p345
aVhttps://patentscope.wipo.int/search/en/detail.jsf?docId=WO2003094496
p346
aVhttps://patentscope.wipo.int/search/en/detail.jsf?docId=WO2003094545
p347
aVhttps://patentscope.wipo.int/search/en/detail.jsf?docId=WO2003097405
p348
aVhttps://patentscope.wipo.int/search/en/detail.jsf?docId=WO2003100797
p349
aVhttps://patentscope.wipo.int/search/en/detail.jsf?docId=WO2004086097
p350
aVhttps://patentscope.wipo.int/search/en/detail.jsf?docId=WO2003096569
p351
aVhttps://patentscope.wipo.int/search/en/detail.jsf?docId=WO2003096213
p352
aVhttps://patentscope.wipo.int/search/en/detail.jsf?docId=WO2003098945
p353
aVhttps://patentscope.wipo.int/search/en/detail.jsf?docId=WO2003098470
p354
aVhttps://patentscope.wipo.int/search/en/detail.jsf?docId=WO2004001676
p355
aVhttps://patentscope.wipo.int/search/en/detail.jsf?docId=WO2003098444
p356
aVhttps://patentscope.wipo.int/search/en/detail.jsf?docId=WO2003100990
p357
aVhttps://patentscope.wipo.int/search/en/detail.jsf?docId=WO2004006044
p358
aVhttps://patentscope.wipo.int/search/en/detail.jsf?docId=WO2004013710
p359
aVhttps://patentscope.wipo.int/search/en/detail.jsf?docId=WO2004019476
p360
aVhttps://patentscope.wipo.int/search/en/detail.jsf?docId=WO2005016361
p361
aVhttps://patentscope.wipo.int/search/en/detail.jsf?docId=WO2004045101
p362
aVhttps://patentscope.wipo.int/search/en/detail.jsf?docId=WO2004023764
p363
aVhttps://patentscope.wipo.int/search/en/detail.jsf?docId=WO2004025392
p364
aVhttps://patentscope.wipo.int/search/en/detail.jsf?docId=WO2004021972
p365
aVhttps://patentscope.wipo.int/search/en/detail.jsf?docId=WO2004002282
p366
aVhttps://patentscope.wipo.int/search/en/detail.jsf?docId=WO2004049587
p367
aVhttps://patentscope.wipo.int/search/en/detail.jsf?docId=WO2005041381
p368
aVhttps://patentscope.wipo.int/search/en/detail.jsf?docId=WO2004049609
p369
aVhttps://patentscope.wipo.int/search/en/detail.jsf?docId=WO2004049610
p370
aVhttps://patentscope.wipo.int/search/en/detail.jsf?docId=WO2004042491
p371
aVhttps://patentscope.wipo.int/search/en/detail.jsf?docId=WO2004045133
p372
aVhttps://patentscope.wipo.int/search/en/detail.jsf?docId=WO2004045224
p373
aVhttps://patentscope.wipo.int/search/en/detail.jsf?docId=WO2004049737
p374
aVhttps://patentscope.wipo.int/search/en/detail.jsf?docId=WO2004057762
p375
aVhttps://patentscope.wipo.int/search/en/detail.jsf?docId=WO2004049750
p376
aVhttps://patentscope.wipo.int/search/en/detail.jsf?docId=WO2004059417
p377
aVhttps://patentscope.wipo.int/search/en/detail.jsf?docId=WO2004054981
p378
aVhttps://patentscope.wipo.int/search/en/detail.jsf?docId=WO2004054346
p379
aVhttps://patentscope.wipo.int/search/en/detail.jsf?docId=WO2004034765
p380
aVhttps://patentscope.wipo.int/search/en/detail.jsf?docId=WO2004059502
p381
aVhttps://patentscope.wipo.int/search/en/detail.jsf?docId=WO2004070504
p382
aVhttps://patentscope.wipo.int/search/en/detail.jsf?docId=WO2004077046
p383
aVhttps://patentscope.wipo.int/search/en/detail.jsf?docId=WO2004095159
p384
aVhttps://patentscope.wipo.int/search/en/detail.jsf?docId=WO2004091038
p385
aVhttps://patentscope.wipo.int/search/en/detail.jsf?docId=WO2004109532
p386
aVhttps://patentscope.wipo.int/search/en/detail.jsf?docId=WO2004112259
p387
aVhttps://patentscope.wipo.int/search/en/detail.jsf?docId=WO2004114568
p388
aVhttps://patentscope.wipo.int/search/en/detail.jsf?docId=WO2004107510
p389
aVhttps://patentscope.wipo.int/search/en/detail.jsf?docId=WO2005002062
p390
aVhttps://patentscope.wipo.int/search/en/detail.jsf?docId=WO2004114043
p391
aVhttps://patentscope.wipo.int/search/en/detail.jsf?docId=WO2005001704
p392
aVhttps://patentscope.wipo.int/search/en/detail.jsf?docId=WO2004111746
p393
aVhttps://patentscope.wipo.int/search/en/detail.jsf?docId=WO2004114570
p394
aVhttps://patentscope.wipo.int/search/en/detail.jsf?docId=WO2004111601
p395
aVhttps://patentscope.wipo.int/search/en/detail.jsf?docId=WO2004113429
p396
aVhttps://patentscope.wipo.int/search/en/detail.jsf?docId=WO2004114048
p397
aVhttps://patentscope.wipo.int/search/en/detail.jsf?docId=WO2005003987
p398
aVhttps://patentscope.wipo.int/search/en/detail.jsf?docId=WO2006008567
p399
aVhttps://patentscope.wipo.int/search/en/detail.jsf?docId=WO2004106206
p400
aVhttps://patentscope.wipo.int/search/en/detail.jsf?docId=WO2005007506
p401
aVhttps://patentscope.wipo.int/search/en/detail.jsf?docId=WO2004110581
p402
aVhttps://patentscope.wipo.int/search/en/detail.jsf?docId=WO2005016317
p403
aVhttps://patentscope.wipo.int/search/en/detail.jsf?docId=WO2005008932
p404
aVhttps://patentscope.wipo.int/search/en/detail.jsf?docId=WO2005018095
p405
aVhttps://patentscope.wipo.int/search/en/detail.jsf?docId=WO2005007797
p406
aVhttps://patentscope.wipo.int/search/en/detail.jsf?docId=WO2005018919
p407
aVhttps://patentscope.wipo.int/search/en/detail.jsf?docId=WO2006021828
p408
aVhttps://patentscope.wipo.int/search/en/detail.jsf?docId=WO2004107631
p409
aVhttps://patentscope.wipo.int/search/en/detail.jsf?docId=WO2005025184
p410
aVhttps://patentscope.wipo.int/search/en/detail.jsf?docId=WO2005025053
p411
aVhttps://patentscope.wipo.int/search/en/detail.jsf?docId=WO2005029939
p412
aVhttps://patentscope.wipo.int/search/en/detail.jsf?docId=WO2005031587
p413
aVhttps://patentscope.wipo.int/search/en/detail.jsf?docId=WO2005029316
p414
aVhttps://patentscope.wipo.int/search/en/detail.jsf?docId=WO2005026866
p415
aVhttps://patentscope.wipo.int/search/en/detail.jsf?docId=WO2005023758
p416
aVhttps://patentscope.wipo.int/search/en/detail.jsf?docId=WO2005027297
p417
aVhttps://patentscope.wipo.int/search/en/detail.jsf?docId=WO2005028090
p418
aVhttps://patentscope.wipo.int/search/en/detail.jsf?docId=WO2005033824
p419
aVhttps://patentscope.wipo.int/search/en/detail.jsf?docId=WO2005031984
p420
aVhttps://patentscope.wipo.int/search/en/detail.jsf?docId=WO2005031006
p421
aVhttps://patentscope.wipo.int/search/en/detail.jsf?docId=WO2005041416
p422
aVhttps://patentscope.wipo.int/search/en/detail.jsf?docId=WO2005034530
p423
aVhttps://patentscope.wipo.int/search/en/detail.jsf?docId=WO2005033827
p424
aVhttps://patentscope.wipo.int/search/en/detail.jsf?docId=WO2005036299
p425
aVhttps://patentscope.wipo.int/search/en/detail.jsf?docId=WO2005043271
p426
aVhttps://patentscope.wipo.int/search/en/detail.jsf?docId=WO2005039061
p427
aVhttps://patentscope.wipo.int/search/en/detail.jsf?docId=WO2005036795
p428
aVhttps://patentscope.wipo.int/search/en/detail.jsf?docId=WO2005057824
p429
aVhttps://patentscope.wipo.int/search/en/detail.jsf?docId=WO2005036210
p430
aVhttps://patentscope.wipo.int/search/en/detail.jsf?docId=WO2005053195
p431
aVhttps://patentscope.wipo.int/search/en/detail.jsf?docId=WO2005039205
p432
aVhttps://patentscope.wipo.int/search/en/detail.jsf?docId=WO2006040609
p433
aVhttps://patentscope.wipo.int/search/en/detail.jsf?docId=WO2005062612
p434
aVhttps://patentscope.wipo.int/search/en/detail.jsf?docId=WO2005039084
p435
aVhttps://patentscope.wipo.int/search/en/detail.jsf?docId=WO2005048496
p436
aVhttps://patentscope.wipo.int/search/en/detail.jsf?docId=WO2005039288
p437
aVhttps://patentscope.wipo.int/search/en/detail.jsf?docId=WO2005041459
p438
aVhttps://patentscope.wipo.int/search/en/detail.jsf?docId=WO2005038161
p439
aVhttps://patentscope.wipo.int/search/en/detail.jsf?docId=WO2005032806
p440
aVhttps://patentscope.wipo.int/search/en/detail.jsf?docId=WO2005074354
p441
aVhttps://patentscope.wipo.int/search/en/detail.jsf?docId=WO2005030317
p442
aVhttps://patentscope.wipo.int/search/en/detail.jsf?docId=WO2005044175
p443
aVhttps://patentscope.wipo.int/search/en/detail.jsf?docId=WO2005046252
p444
aVhttps://patentscope.wipo.int/search/en/detail.jsf?docId=WO2005045553
p445
aVhttps://patentscope.wipo.int/search/en/detail.jsf?docId=WO2005060336
p446
aVhttps://patentscope.wipo.int/search/en/detail.jsf?docId=WO2005047177
p447
aVhttps://patentscope.wipo.int/search/en/detail.jsf?docId=WO2005048006
p448
aVhttps://patentscope.wipo.int/search/en/detail.jsf?docId=WO2005053197
p449
aVhttps://patentscope.wipo.int/search/en/detail.jsf?docId=WO2005050827
p450
aVhttps://patentscope.wipo.int/search/en/detail.jsf?docId=WO2005062698
p451
aVhttps://patentscope.wipo.int/search/en/detail.jsf?docId=WO2005065007
p452
aVhttps://patentscope.wipo.int/search/en/detail.jsf?docId=WO2005076689
p453
aVhttps://patentscope.wipo.int/search/en/detail.jsf?docId=WO2005065009
p454
aVhttps://patentscope.wipo.int/search/en/detail.jsf?docId=WO2005052856
p455
aVhttps://patentscope.wipo.int/search/en/detail.jsf?docId=WO2005045358
p456
aVhttps://patentscope.wipo.int/search/en/detail.jsf?docId=WO2006051349
p457
aVhttps://patentscope.wipo.int/search/en/detail.jsf?docId=WO2005076690
p458
aVhttps://patentscope.wipo.int/search/en/detail.jsf?docId=WO2005072048
p459
aVhttps://patentscope.wipo.int/search/en/detail.jsf?docId=WO2005019962
p460
aVhttps://patentscope.wipo.int/search/en/detail.jsf?docId=WO2005057316
p461
aVhttps://patentscope.wipo.int/search/en/detail.jsf?docId=WO2005079138
p462
aVhttps://patentscope.wipo.int/search/en/detail.jsf?docId=WO2005057820
p463
aVhttps://patentscope.wipo.int/search/en/detail.jsf?docId=WO2005057317
p464
aVhttps://patentscope.wipo.int/search/en/detail.jsf?docId=WO2006064299
p465
aVhttps://patentscope.wipo.int/search/en/detail.jsf?docId=WO2005060339
p466
aVhttps://patentscope.wipo.int/search/en/detail.jsf?docId=WO2005062699
p467
aVhttps://patentscope.wipo.int/search/en/detail.jsf?docId=WO2005065011
p468
aVhttps://patentscope.wipo.int/search/en/detail.jsf?docId=WO2005079139
p469
aVhttps://patentscope.wipo.int/search/en/detail.jsf?docId=WO2005084113
p470
aVhttps://patentscope.wipo.int/search/en/detail.jsf?docId=WO2005060343
p471
aVhttps://patentscope.wipo.int/search/en/detail.jsf?docId=WO2004106806
p472
aVhttps://patentscope.wipo.int/search/en/detail.jsf?docId=WO2005043273
p473
aVhttps://patentscope.wipo.int/search/en/detail.jsf?docId=WO2005043220
p474
aVhttps://patentscope.wipo.int/search/en/detail.jsf?docId=WO2005050344
p475
aVhttps://patentscope.wipo.int/search/en/detail.jsf?docId=WO2005067370
p476
aVhttps://patentscope.wipo.int/search/en/detail.jsf?docId=WO2006077451
p477
aVhttps://patentscope.wipo.int/search/en/detail.jsf?docId=WO2005069725
p478
aVhttps://patentscope.wipo.int/search/en/detail.jsf?docId=WO2005072050
p479
aVhttps://patentscope.wipo.int/search/en/detail.jsf?docId=WO2005117565
p480
aVhttps://patentscope.wipo.int/search/en/detail.jsf?docId=WO2005067375
p481
aVhttps://patentscope.wipo.int/search/en/detail.jsf?docId=WO2005109581
p482
aVhttps://patentscope.wipo.int/search/en/detail.jsf?docId=WO2006097782
p483
aVhttps://patentscope.wipo.int/search/en/detail.jsf?docId=WO2005089052
p484
aVhttps://patentscope.wipo.int/search/en/detail.jsf?docId=WO2005089054
p485
aVhttps://patentscope.wipo.int/search/en/detail.jsf?docId=WO2005094167
p486
aVhttps://patentscope.wipo.int/search/en/detail.jsf?docId=WO2005072052
p487
aVhttps://patentscope.wipo.int/search/en/detail.jsf?docId=WO2005096703
p488
aVhttps://patentscope.wipo.int/search/en/detail.jsf?docId=WO2005102279
p489
aVhttps://patentscope.wipo.int/search/en/detail.jsf?docId=WO2005089044
p490
aVhttps://patentscope.wipo.int/search/en/detail.jsf?docId=WO2005104653
p491
aVhttps://patentscope.wipo.int/search/en/detail.jsf?docId=WO2005086566
p492
aVhttps://patentscope.wipo.int/search/en/detail.jsf?docId=WO2006040624
p493
aVhttps://patentscope.wipo.int/search/en/detail.jsf?docId=WO2005117327
p494
aVhttps://patentscope.wipo.int/search/en/detail.jsf?docId=WO2005118971
p495
aVhttps://patentscope.wipo.int/search/en/detail.jsf?docId=WO2005117694
p496
aVhttps://patentscope.wipo.int/search/en/detail.jsf?docId=WO2005122607
p497
aVhttps://patentscope.wipo.int/search/en/detail.jsf?docId=WO2005120394
p498
aVhttps://patentscope.wipo.int/search/en/detail.jsf?docId=WO2006008592
p499
aVhttps://patentscope.wipo.int/search/en/detail.jsf?docId=WO2006005993
p500
aVhttps://patentscope.wipo.int/search/en/detail.jsf?docId=WO2005122679
p501
aVhttps://patentscope.wipo.int/search/en/detail.jsf?docId=WO2005122777
p502
aVhttps://patentscope.wipo.int/search/en/detail.jsf?docId=WO2005124533
p503
aVhttps://patentscope.wipo.int/search/en/detail.jsf?docId=WO2005125164
p504
aVhttps://patentscope.wipo.int/search/en/detail.jsf?docId=WO2005125229
p505
aVhttps://patentscope.wipo.int/search/en/detail.jsf?docId=WO2005125156
p506
aVhttps://patentscope.wipo.int/search/en/detail.jsf?docId=WO2006000868
p507
aVhttps://patentscope.wipo.int/search/en/detail.jsf?docId=WO2006005995
p508
aVhttps://patentscope.wipo.int/search/en/detail.jsf?docId=WO2006109107
p509
aVhttps://patentscope.wipo.int/search/en/detail.jsf?docId=WO2005122682
p510
aVhttps://patentscope.wipo.int/search/en/detail.jsf?docId=WO2006006005
p511
aVhttps://patentscope.wipo.int/search/en/detail.jsf?docId=WO2006016208
p512
aVhttps://patentscope.wipo.int/search/en/detail.jsf?docId=WO2006006035
p513
aVhttps://patentscope.wipo.int/search/en/detail.jsf?docId=WO2005122683
p514
aVhttps://patentscope.wipo.int/search/en/detail.jsf?docId=WO2006008594
p515
aVhttps://patentscope.wipo.int/search/en/detail.jsf?docId=WO2006008617
p516
aVhttps://patentscope.wipo.int/search/en/detail.jsf?docId=WO2006016225
p517
aVhttps://patentscope.wipo.int/search/en/detail.jsf?docId=WO2006016226
p518
aVhttps://patentscope.wipo.int/search/en/detail.jsf?docId=WO2006016227
p519
aVhttps://patentscope.wipo.int/search/en/detail.jsf?docId=WO2006075212
p520
aVhttps://patentscope.wipo.int/search/en/detail.jsf?docId=WO2006016282
p521
aVhttps://patentscope.wipo.int/search/en/detail.jsf?docId=WO2005076720
p522
aVhttps://patentscope.wipo.int/search/en/detail.jsf?docId=WO2005084118
p523
aVhttps://patentscope.wipo.int/search/en/detail.jsf?docId=WO2005091707
p524
aVhttps://patentscope.wipo.int/search/en/detail.jsf?docId=WO2005094165
p525
aVhttps://patentscope.wipo.int/search/en/detail.jsf?docId=WO2005097149
p526
aVhttps://patentscope.wipo.int/search/en/detail.jsf?docId=WO2005096699
p527
aVhttps://patentscope.wipo.int/search/en/detail.jsf?docId=WO2005099347
p528
aVhttps://patentscope.wipo.int/search/en/detail.jsf?docId=WO2005115422
p529
aVhttps://patentscope.wipo.int/search/en/detail.jsf?docId=WO2005116738
p530
aVhttps://patentscope.wipo.int/search/en/detail.jsf?docId=WO2005119976
p531
aVhttps://patentscope.wipo.int/search/en/detail.jsf?docId=WO2005122479
p532
aVhttps://patentscope.wipo.int/search/en/detail.jsf?docId=WO2006090216
p533
aVhttps://patentscope.wipo.int/search/en/detail.jsf?docId=WO2006000961
p534
aVhttps://patentscope.wipo.int/search/en/detail.jsf?docId=WO2005123201
p535
aVhttps://patentscope.wipo.int/search/en/detail.jsf?docId=WO2006000985
p536
aVhttps://patentscope.wipo.int/search/en/detail.jsf?docId=WO2006003548
p537
aVhttps://patentscope.wipo.int/search/en/detail.jsf?docId=WO2006003594
p538
aVhttps://patentscope.wipo.int/search/en/detail.jsf?docId=WO2006003596
p539
aVhttps://patentscope.wipo.int/search/en/detail.jsf?docId=WO2006131789
p540
aVhttps://patentscope.wipo.int/search/en/detail.jsf?docId=WO2006008699
p541
aVhttps://patentscope.wipo.int/search/en/detail.jsf?docId=WO2006027744
p542
aVhttps://patentscope.wipo.int/search/en/detail.jsf?docId=WO2007004047
p543
aVhttps://patentscope.wipo.int/search/en/detail.jsf?docId=WO2006136958
p544
aVhttps://patentscope.wipo.int/search/en/detail.jsf?docId=WO2007036914
p545
aVhttps://patentscope.wipo.int/search/en/detail.jsf?docId=WO2009034409
p546
aVhttps://patentscope.wipo.int/search/en/detail.jsf?docId=WO2008125912
p547
aVhttps://patentscope.wipo.int/search/en/detail.jsf?docId=WO2008026109
p548
aVhttps://patentscope.wipo.int/search/en/detail.jsf?docId=WO2008026148
p549
aVhttps://patentscope.wipo.int/search/en/detail.jsf?docId=WO2008110929
p550
aVhttps://patentscope.wipo.int/search/en/detail.jsf?docId=WO2008155629
p551
aVhttps://patentscope.wipo.int/search/en/detail.jsf?docId=WO2014199228
p552
aVhttps://patentscope.wipo.int/search/en/detail.jsf?docId=WO2015036843
p553
aVhttps://patentscope.wipo.int/search/en/detail.jsf?docId=WO2015185960
p554
aVhttps://patentscope.wipo.int/search/en/detail.jsf?docId=WO2015040485
p555
aVhttps://patentscope.wipo.int/search/en/detail.jsf?docId=WO2015044887
p556
aVhttps://patentscope.wipo.int/search/en/detail.jsf?docId=WO2015079334
p557
aVhttps://patentscope.wipo.int/search/en/detail.jsf?docId=WO2015052678
p558
aVhttps://patentscope.wipo.int/search/en/detail.jsf?docId=WO2015052681
p559
aVhttps://patentscope.wipo.int/search/en/detail.jsf?docId=WO2015056221
p560
aVhttps://patentscope.wipo.int/search/en/detail.jsf?docId=WO2015056223
p561
aVhttps://patentscope.wipo.int/search/en/detail.jsf?docId=WO2015056224
p562
aVhttps://patentscope.wipo.int/search/en/detail.jsf?docId=WO2015056225
p563
aVhttps://patentscope.wipo.int/search/en/detail.jsf?docId=WO2015056226
p564
aVhttps://patentscope.wipo.int/search/en/detail.jsf?docId=WO2015056227
p565
aVhttps://patentscope.wipo.int/search/en/detail.jsf?docId=WO2015056228
p566
aVhttps://patentscope.wipo.int/search/en/detail.jsf?docId=WO2015056229
p567
aVhttps://patentscope.wipo.int/search/en/detail.jsf?docId=WO200074551
p568
aVhttps://patentscope.wipo.int/search/en/detail.jsf?docId=WO200074552
p569
aVhttps://patentscope.wipo.int/search/en/detail.jsf?docId=WO200075277
p570
aVhttps://patentscope.wipo.int/search/en/detail.jsf?docId=WO200151003
p571
aVhttps://patentscope.wipo.int/search/en/detail.jsf?docId=WO2002003006
p572
aVhttps://patentscope.wipo.int/search/en/detail.jsf?docId=WO2002007534
p573
aVhttps://patentscope.wipo.int/search/en/detail.jsf?docId=WO2002004082
p574
aVhttps://patentscope.wipo.int/search/en/detail.jsf?docId=WO2002010844
p575
aVhttps://patentscope.wipo.int/search/en/detail.jsf?docId=WO2002011666
p576
aVhttps://patentscope.wipo.int/search/en/detail.jsf?docId=WO2002010672
p577
aVhttps://patentscope.wipo.int/search/en/detail.jsf?docId=WO2002012840
p578
aVhttps://patentscope.wipo.int/search/en/detail.jsf?docId=WO2002012976
p579
aVhttps://patentscope.wipo.int/search/en/detail.jsf?docId=WO2002014973
p580
aVhttps://patentscope.wipo.int/search/en/detail.jsf?docId=WO2002022037
p581
aVhttps://patentscope.wipo.int/search/en/detail.jsf?docId=WO2002015413
p582
aVhttps://patentscope.wipo.int/search/en/detail.jsf?docId=WO2002013672
p583
aVhttps://patentscope.wipo.int/search/en/detail.jsf?docId=WO2002015454
p584
aVhttps://patentscope.wipo.int/search/en/detail.jsf?docId=WO2002015533
p585
aVhttps://patentscope.wipo.int/search/en/detail.jsf?docId=WO2002013674
p586
aVhttps://patentscope.wipo.int/search/en/detail.jsf?docId=WO2002021945
p587
aVhttps://patentscope.wipo.int/search/en/detail.jsf?docId=WO2002048912
p588
aVhttps://patentscope.wipo.int/search/en/detail.jsf?docId=WO2002016549
p589
aVhttps://patentscope.wipo.int/search/en/detail.jsf?docId=WO2002018736
p590
aVhttps://patentscope.wipo.int/search/en/detail.jsf?docId=WO2002018901
p591
aVhttps://patentscope.wipo.int/search/en/detail.jsf?docId=WO2002021805
p592
aVhttps://patentscope.wipo.int/search/en/detail.jsf?docId=WO2002018537
p593
aVhttps://patentscope.wipo.int/search/en/detail.jsf?docId=WO2002019961
p594
aVhttps://patentscope.wipo.int/search/en/detail.jsf?docId=WO2002019591
p595
aVhttps://patentscope.wipo.int/search/en/detail.jsf?docId=WO2002019956
p596
aVhttps://patentscope.wipo.int/search/en/detail.jsf?docId=WO2002017986
p597
aVhttps://patentscope.wipo.int/search/en/detail.jsf?docId=WO2002017987
p598
aVhttps://patentscope.wipo.int/search/en/detail.jsf?docId=WO2002025397
p599
aVhttps://patentscope.wipo.int/search/en/detail.jsf?docId=WO2002019962
p600
aVhttps://patentscope.wipo.int/search/en/detail.jsf?docId=WO2002037983
p601
aVhttps://patentscope.wipo.int/search/en/detail.jsf?docId=WO2002019887
p602
aVhttps://patentscope.wipo.int/search/en/detail.jsf?docId=WO2002033111
p603
aVhttps://patentscope.wipo.int/search/en/detail.jsf?docId=WO2002021575
p604
aVhttps://patentscope.wipo.int/search/en/detail.jsf?docId=WO2002019937
p605
aVhttps://patentscope.wipo.int/search/en/detail.jsf?docId=WO2002021055
p606
aVhttps://patentscope.wipo.int/search/en/detail.jsf?docId=WO2002021992
p607
aVhttps://patentscope.wipo.int/search/en/detail.jsf?docId=WO2002019888
p608
aVhttps://patentscope.wipo.int/search/en/detail.jsf?docId=WO2002019889
p609
aVhttps://patentscope.wipo.int/search/en/detail.jsf?docId=WO2002021576
p610
aVhttps://patentscope.wipo.int/search/en/detail.jsf?docId=WO2002036903
p611
aVhttps://patentscope.wipo.int/search/en/detail.jsf?docId=WO2002024863
p612
aVhttps://patentscope.wipo.int/search/en/detail.jsf?docId=WO2002023213
p613
aVhttps://patentscope.wipo.int/search/en/detail.jsf?docId=WO2002023305
p614
aVhttps://patentscope.wipo.int/search/en/detail.jsf?docId=WO2002022779
p615
aVhttps://patentscope.wipo.int/search/en/detail.jsf?docId=WO2002024722
p616
aVhttps://patentscope.wipo.int/search/en/detail.jsf?docId=WO2002025822
p617
aVhttps://patentscope.wipo.int/search/en/detail.jsf?docId=WO2002023741
p618
aVhttps://patentscope.wipo.int/search/en/detail.jsf?docId=WO2002023306
p619
aVhttps://patentscope.wipo.int/search/en/detail.jsf?docId=WO2002025585
p620
aVhttps://patentscope.wipo.int/search/en/detail.jsf?docId=WO2002025586
p621
aVhttps://patentscope.wipo.int/search/en/detail.jsf?docId=WO2002025587
p622
aVhttps://patentscope.wipo.int/search/en/detail.jsf?docId=WO2002025320
p623
aVhttps://patentscope.wipo.int/search/en/detail.jsf?docId=WO2002022075
p624
aVhttps://patentscope.wipo.int/search/en/detail.jsf?docId=WO2002024099
p625
aVhttps://patentscope.wipo.int/search/en/detail.jsf?docId=WO2002026101
p626
aVhttps://patentscope.wipo.int/search/en/detail.jsf?docId=WO2002026102
p627
aVhttps://patentscope.wipo.int/search/en/detail.jsf?docId=WO2002028347
p628
aVhttps://patentscope.wipo.int/search/en/detail.jsf?docId=WO2002029509
p629
aVhttps://patentscope.wipo.int/search/en/detail.jsf?docId=WO2002028217
p630
aVhttps://patentscope.wipo.int/search/en/detail.jsf?docId=WO2002029258
p631
aVhttps://patentscope.wipo.int/search/en/detail.jsf?docId=WO2002030260
p632
aVhttps://patentscope.wipo.int/search/en/detail.jsf?docId=WO2002029511
p633
aVhttps://patentscope.wipo.int/search/en/detail.jsf?docId=WO2002031432
p634
aVhttps://patentscope.wipo.int/search/en/detail.jsf?docId=WO2002028266
p635
aVhttps://patentscope.wipo.int/search/en/detail.jsf?docId=WO2002037732
p636
aVhttps://patentscope.wipo.int/search/en/detail.jsf?docId=WO2002031613
p637
aVhttps://patentscope.wipo.int/search/en/detail.jsf?docId=WO2002031614
p638
aVhttps://patentscope.wipo.int/search/en/detail.jsf?docId=WO2002032150
p639
aVhttps://patentscope.wipo.int/search/en/detail.jsf?docId=WO2002031768
p640
aVhttps://patentscope.wipo.int/search/en/detail.jsf?docId=WO2002031615
p641
aVhttps://patentscope.wipo.int/search/en/detail.jsf?docId=WO2002056700
p642
aVhttps://patentscope.wipo.int/search/en/detail.jsf?docId=WO2002033477
p643
aVhttps://patentscope.wipo.int/search/en/detail.jsf?docId=WO2002032283
p644
aVhttps://patentscope.wipo.int/search/en/detail.jsf?docId=WO2002033687
p645
aVhttps://patentscope.wipo.int/search/en/detail.jsf?docId=WO2002033505
p646
aVhttps://patentscope.wipo.int/search/en/detail.jsf?docId=WO2002033980
p647
aVhttps://patentscope.wipo.int/search/en/detail.jsf?docId=WO2002032337
p648
aVhttps://patentscope.wipo.int/search/en/detail.jsf?docId=WO2002034446
p649
aVhttps://patentscope.wipo.int/search/en/detail.jsf?docId=WO2002034105
p650
aVhttps://patentscope.wipo.int/search/en/detail.jsf?docId=WO2002034106
p651
aVhttps://patentscope.wipo.int/search/en/detail.jsf?docId=WO2002034543
p652
aVhttps://patentscope.wipo.int/search/en/detail.jsf?docId=WO2002034523
p653
aVhttps://patentscope.wipo.int/search/en/detail.jsf?docId=WO2002034524
p654
aVhttps://patentscope.wipo.int/search/en/detail.jsf?docId=WO2002034107
p655
aVhttps://patentscope.wipo.int/search/en/detail.jsf?docId=WO2002035308
p656
aVhttps://patentscope.wipo.int/search/en/detail.jsf?docId=WO2002035468
p657
aVhttps://patentscope.wipo.int/search/en/detail.jsf?docId=WO2002034877
p658
aVhttps://patentscope.wipo.int/search/en/detail.jsf?docId=WO2002035802
p659
aVhttps://patentscope.wipo.int/search/en/detail.jsf?docId=WO2002034202
p660
aVhttps://patentscope.wipo.int/search/en/detail.jsf?docId=WO2002035488
p661
aVhttps://patentscope.wipo.int/search/en/detail.jsf?docId=WO2002034878
p662
aVhttps://patentscope.wipo.int/search/en/detail.jsf?docId=WO2002035751
p663
aVhttps://patentscope.wipo.int/search/en/detail.jsf?docId=WO2002039483
p664
aVhttps://patentscope.wipo.int/search/en/detail.jsf?docId=WO2002037177
p665
aVhttps://patentscope.wipo.int/search/en/detail.jsf?docId=WO2002037536
p666
aVhttps://patentscope.wipo.int/search/en/detail.jsf?docId=WO2002037207
p667
aVhttps://patentscope.wipo.int/search/en/detail.jsf?docId=WO2002034104
p668
aVhttps://patentscope.wipo.int/search/en/detail.jsf?docId=WO2002037142
p669
aVhttps://patentscope.wipo.int/search/en/detail.jsf?docId=WO2002036066
p670
aVhttps://patentscope.wipo.int/search/en/detail.jsf?docId=WO2002036067
p671
aVhttps://patentscope.wipo.int/search/en/detail.jsf?docId=WO2002037206
p672
aVhttps://patentscope.wipo.int/search/en/detail.jsf?docId=WO2002037469
p673
aVhttps://patentscope.wipo.int/search/en/detail.jsf?docId=WO2002037730
p674
aVhttps://patentscope.wipo.int/search/en/detail.jsf?docId=WO2002037693
p675
aVhttps://patentscope.wipo.int/search/en/detail.jsf?docId=WO2002037731
p676
aVhttps://patentscope.wipo.int/search/en/detail.jsf?docId=WO2002047532
p677
aVhttps://patentscope.wipo.int/search/en/detail.jsf?docId=WO2002039206
p678
aVhttps://patentscope.wipo.int/search/en/detail.jsf?docId=WO2003044671
p679
aVhttps://patentscope.wipo.int/search/en/detail.jsf?docId=WO2002039793
p680
aVhttps://patentscope.wipo.int/search/en/detail.jsf?docId=WO2002039794
p681
aVhttps://patentscope.wipo.int/search/en/detail.jsf?docId=WO2002036638
p682
aVhttps://patentscope.wipo.int/search/en/detail.jsf?docId=WO2002038101
p683
aVhttps://patentscope.wipo.int/search/en/detail.jsf?docId=WO2002039207
p684
aVhttps://patentscope.wipo.int/search/en/detail.jsf?docId=WO2002039475
p685
aVhttps://patentscope.wipo.int/search/en/detail.jsf?docId=WO2002040125
p686
aVhttps://patentscope.wipo.int/search/en/detail.jsf?docId=WO2002038855
p687
aVhttps://patentscope.wipo.int/search/en/detail.jsf?docId=WO2002039208
p688
aVhttps://patentscope.wipo.int/search/en/detail.jsf?docId=WO2002038030
p689
aVhttps://patentscope.wipo.int/search/en/detail.jsf?docId=WO2002039873
p690
aVhttps://patentscope.wipo.int/search/en/detail.jsf?docId=WO2002039482
p691
aVhttps://patentscope.wipo.int/search/en/detail.jsf?docId=WO2002039948
p692
aVhttps://patentscope.wipo.int/search/en/detail.jsf?docId=WO2002041036
p693
aVhttps://patentscope.wipo.int/search/en/detail.jsf?docId=WO2002041097
p694
aVhttps://patentscope.wipo.int/search/en/detail.jsf?docId=WO2002041622
p695
aVhttps://patentscope.wipo.int/search/en/detail.jsf?docId=WO2002041085
p696
aVhttps://patentscope.wipo.int/search/en/detail.jsf?docId=WO2002039874
p697
aVhttps://patentscope.wipo.int/search/en/detail.jsf?docId=WO2002040629
p698
aVhttps://patentscope.wipo.int/search/en/detail.jsf?docId=WO2002040630
p699
aVhttps://patentscope.wipo.int/search/en/detail.jsf?docId=WO2002052283
p700
aVhttps://patentscope.wipo.int/search/en/detail.jsf?docId=WO2002042801
p701
aVhttps://patentscope.wipo.int/search/en/detail.jsf?docId=WO2003044906
p702
aVhttps://patentscope.wipo.int/search/en/detail.jsf?docId=WO2002041823
p703
aVhttps://patentscope.wipo.int/search/en/detail.jsf?docId=WO2002041827
p704
aVhttps://patentscope.wipo.int/search/en/detail.jsf?docId=WO2002054169
p705
aVhttps://patentscope.wipo.int/search/en/detail.jsf?docId=WO2002043649
p706
aVhttps://patentscope.wipo.int/search/en/detail.jsf?docId=WO2003054688
p707
aVhttps://patentscope.wipo.int/search/en/detail.jsf?docId=WO2002043366
p708
aVhttps://patentscope.wipo.int/search/en/detail.jsf?docId=WO2002043113
p709
aVhttps://patentscope.wipo.int/search/en/detail.jsf?docId=WO2002044808
p710
aVhttps://patentscope.wipo.int/search/en/detail.jsf?docId=WO2002043558
p711
aVhttps://patentscope.wipo.int/search/en/detail.jsf?docId=WO2002045275
p712
aVhttps://patentscope.wipo.int/search/en/detail.jsf?docId=WO2002044828
p713
aVhttps://patentscope.wipo.int/search/en/detail.jsf?docId=WO2002045464
p714
aVhttps://patentscope.wipo.int/search/en/detail.jsf?docId=WO2002044323
p715
aVhttps://patentscope.wipo.int/search/en/detail.jsf?docId=WO2002044829
p716
aVhttps://patentscope.wipo.int/search/en/detail.jsf?docId=WO2002043651
p717
aVhttps://patentscope.wipo.int/search/en/detail.jsf?docId=WO2002043652
p718
aVhttps://patentscope.wipo.int/search/en/detail.jsf?docId=WO2002043559
p719
aVhttps://patentscope.wipo.int/search/en/detail.jsf?docId=WO2002043462
p720
aVhttps://patentscope.wipo.int/search/en/detail.jsf?docId=WO2002045125
p721
aVhttps://patentscope.wipo.int/search/en/detail.jsf?docId=WO2002047017
p722
aVhttps://patentscope.wipo.int/search/en/detail.jsf?docId=WO2002045473
p723
aVhttps://patentscope.wipo.int/search/en/detail.jsf?docId=WO2003048577
p724
aVhttps://patentscope.wipo.int/search/en/detail.jsf?docId=WO2002045474
p725
aVhttps://patentscope.wipo.int/search/en/detail.jsf?docId=WO2002047067
p726
aVhttps://patentscope.wipo.int/search/en/detail.jsf?docId=WO2002046717
p727
aVhttps://patentscope.wipo.int/search/en/detail.jsf?docId=WO2002051052
p728
aVhttps://patentscope.wipo.int/search/en/detail.jsf?docId=WO2002049146
p729
aVhttps://patentscope.wipo.int/search/en/detail.jsf?docId=WO2002047308
p730
aVhttps://patentscope.wipo.int/search/en/detail.jsf?docId=WO2002047392
p731
aVhttps://patentscope.wipo.int/search/en/detail.jsf?docId=WO2002047012
p732
aVhttps://patentscope.wipo.int/search/en/detail.jsf?docId=WO2002045567
p733
aVhttps://patentscope.wipo.int/search/en/detail.jsf?docId=WO2002046549
p734
aVhttps://patentscope.wipo.int/search/en/detail.jsf?docId=WO2002048911
p735
aVhttps://patentscope.wipo.int/search/en/detail.jsf?docId=WO2002049402
p736
aVhttps://patentscope.wipo.int/search/en/detail.jsf?docId=WO2002048985
p737
aVhttps://patentscope.wipo.int/search/en/detail.jsf?docId=WO2002048312
p738
aVhttps://patentscope.wipo.int/search/en/detail.jsf?docId=WO2002048822
p739
aVhttps://patentscope.wipo.int/search/en/detail.jsf?docId=WO2002051166
p740
aVhttps://patentscope.wipo.int/search/en/detail.jsf?docId=WO2002047850
p741
aVhttps://patentscope.wipo.int/search/en/detail.jsf?docId=WO2002049147
p742
aVhttps://patentscope.wipo.int/search/en/detail.jsf?docId=WO2002049235
p743
aVhttps://patentscope.wipo.int/search/en/detail.jsf?docId=WO2002048605
p744
aVhttps://patentscope.wipo.int/search/en/detail.jsf?docId=WO2002049253
p745
aVhttps://patentscope.wipo.int/search/en/detail.jsf?docId=WO2002049254
p746
aVhttps://patentscope.wipo.int/search/en/detail.jsf?docId=WO2002049319
p747
aVhttps://patentscope.wipo.int/search/en/detail.jsf?docId=WO2002049678
p748
aVhttps://patentscope.wipo.int/search/en/detail.jsf?docId=WO2002050243
p749
aVhttps://patentscope.wipo.int/search/en/detail.jsf?docId=WO2002052729
p750
aVhttps://patentscope.wipo.int/search/en/detail.jsf?docId=WO2002049535
p751
aVhttps://patentscope.wipo.int/search/en/detail.jsf?docId=WO2002049536
p752
aVhttps://patentscope.wipo.int/search/en/detail.jsf?docId=WO2002053060
p753
aVhttps://patentscope.wipo.int/search/en/detail.jsf?docId=WO2002050599
p754
aVhttps://patentscope.wipo.int/search/en/detail.jsf?docId=WO2002050813
p755
aVhttps://patentscope.wipo.int/search/en/detail.jsf?docId=WO2002053011
p756
aVhttps://patentscope.wipo.int/search/en/detail.jsf?docId=WO2002049608
p757
aVhttps://patentscope.wipo.int/search/en/detail.jsf?docId=WO2002051016
p758
aVhttps://patentscope.wipo.int/search/en/detail.jsf?docId=WO2002050763
p759
aVhttps://patentscope.wipo.int/search/en/detail.jsf?docId=WO2002049489
p760
aVhttps://patentscope.wipo.int/search/en/detail.jsf?docId=WO2002050625
p761
aVhttps://patentscope.wipo.int/search/en/detail.jsf?docId=WO2002053407
p762
aVhttps://patentscope.wipo.int/search/en/detail.jsf?docId=WO2002056200
p763
aVhttps://patentscope.wipo.int/search/en/detail.jsf?docId=WO2002052361
p764
aVhttps://patentscope.wipo.int/search/en/detail.jsf?docId=WO2002052923
p765
aVhttps://patentscope.wipo.int/search/en/detail.jsf?docId=WO2002054063
p766
aVhttps://patentscope.wipo.int/search/en/detail.jsf?docId=WO2002052365
p767
aVhttps://patentscope.wipo.int/search/en/detail.jsf?docId=WO2002095687
p768
aVhttps://patentscope.wipo.int/search/en/detail.jsf?docId=WO2002052366
p769
aVhttps://patentscope.wipo.int/search/en/detail.jsf?docId=WO2002051639
p770
aVhttps://patentscope.wipo.int/search/en/detail.jsf?docId=WO2002054414
p771
aVhttps://patentscope.wipo.int/search/en/detail.jsf?docId=WO2002055165
p772
aVhttps://patentscope.wipo.int/search/en/detail.jsf?docId=WO2002056988
p773
aVhttps://patentscope.wipo.int/search/en/detail.jsf?docId=WO2002054018
p774
aVhttps://patentscope.wipo.int/search/en/detail.jsf?docId=WO2002054333
p775
aVhttps://patentscope.wipo.int/search/en/detail.jsf?docId=WO2002054645
p776
aVhttps://patentscope.wipo.int/search/en/detail.jsf?docId=WO2002056567
p777
aVhttps://patentscope.wipo.int/search/en/detail.jsf?docId=WO2002054837
p778
aVhttps://patentscope.wipo.int/search/en/detail.jsf?docId=WO2002053092
p779
aVhttps://patentscope.wipo.int/search/en/detail.jsf?docId=WO2002054042
p780
aVhttps://patentscope.wipo.int/search/en/detail.jsf?docId=WO2002053093
p781
aVhttps://patentscope.wipo.int/search/en/detail.jsf?docId=WO2002056279
p782
aVhttps://patentscope.wipo.int/search/en/detail.jsf?docId=WO2002053921
p783
aVhttps://patentscope.wipo.int/search/en/detail.jsf?docId=WO2002056094
p784
aVhttps://patentscope.wipo.int/search/en/detail.jsf?docId=WO2002056289
p785
aVhttps://patentscope.wipo.int/search/en/detail.jsf?docId=WO2002056068
p786
aVhttps://patentscope.wipo.int/search/en/detail.jsf?docId=WO2002055123
p787
aVhttps://patentscope.wipo.int/search/en/detail.jsf?docId=WO2002055124
p788
aVhttps://patentscope.wipo.int/search/en/detail.jsf?docId=WO2002055126
p789
aVhttps://patentscope.wipo.int/search/en/detail.jsf?docId=WO2002060072
p790
aVhttps://patentscope.wipo.int/search/en/detail.jsf?docId=WO2002056931
p791
aVhttps://patentscope.wipo.int/search/en/detail.jsf?docId=WO2002055010
p792
aVhttps://patentscope.wipo.int/search/en/detail.jsf?docId=WO2002055784
p793
aVhttps://patentscope.wipo.int/search/en/detail.jsf?docId=WO2002056960
p794
aVhttps://patentscope.wipo.int/search/en/detail.jsf?docId=WO2002056127
p795
aVhttps://patentscope.wipo.int/search/en/detail.jsf?docId=WO2002077847
p796
aVhttps://patentscope.wipo.int/search/en/detail.jsf?docId=WO2002059222
p797
aVhttps://patentscope.wipo.int/search/en/detail.jsf?docId=WO2002055984
p798
aVhttps://patentscope.wipo.int/search/en/detail.jsf?docId=WO2002054932
p799
aVhttps://patentscope.wipo.int/search/en/detail.jsf?docId=WO2002055011
p800
aVhttps://patentscope.wipo.int/search/en/detail.jsf?docId=WO2002057408
p801
aVhttps://patentscope.wipo.int/search/en/detail.jsf?docId=WO2002057738
p802
aVhttps://patentscope.wipo.int/search/en/detail.jsf?docId=WO2002057143
p803
aVhttps://patentscope.wipo.int/search/en/detail.jsf?docId=WO2002055382
p804
aVhttps://patentscope.wipo.int/search/en/detail.jsf?docId=WO2002058078
p805
aVhttps://patentscope.wipo.int/search/en/detail.jsf?docId=WO2002056823
p806
aVhttps://patentscope.wipo.int/search/en/detail.jsf?docId=WO2002060106
p807
aVhttps://patentscope.wipo.int/search/en/detail.jsf?docId=WO2002058530
p808
aVhttps://patentscope.wipo.int/search/en/detail.jsf?docId=WO2002058531
p809
aVhttps://patentscope.wipo.int/search/en/detail.jsf?docId=WO2002060041
p810
aVhttps://patentscope.wipo.int/search/en/detail.jsf?docId=WO2002059258
p811
aVhttps://patentscope.wipo.int/search/en/detail.jsf?docId=WO2002061159
p812
aVhttps://patentscope.wipo.int/search/en/detail.jsf?docId=WO2003018113
p813
aVhttps://patentscope.wipo.int/search/en/detail.jsf?docId=WO2002058782
p814
aVhttps://patentscope.wipo.int/search/en/detail.jsf?docId=WO2002059676
p815
aVhttps://patentscope.wipo.int/search/en/detail.jsf?docId=WO2002074384
p816
aVhttps://patentscope.wipo.int/search/en/detail.jsf?docId=WO2002062076
p817
aVhttps://patentscope.wipo.int/search/en/detail.jsf?docId=WO2002060522
p818
aVhttps://patentscope.wipo.int/search/en/detail.jsf?docId=WO2002060376
p819
aVhttps://patentscope.wipo.int/search/en/detail.jsf?docId=WO2002063889
p820
aVhttps://patentscope.wipo.int/search/en/detail.jsf?docId=WO2002062479
p821
aVhttps://patentscope.wipo.int/search/en/detail.jsf?docId=WO2003066358
p822
aVhttps://patentscope.wipo.int/search/en/detail.jsf?docId=WO2002063481
p823
aVhttps://patentscope.wipo.int/search/en/detail.jsf?docId=WO2002064556
p824
aVhttps://patentscope.wipo.int/search/en/detail.jsf?docId=WO2002065229
p825
aVhttps://patentscope.wipo.int/search/en/detail.jsf?docId=WO2002067444
p826
aVhttps://patentscope.wipo.int/search/en/detail.jsf?docId=WO2002067593
p827
aVhttps://patentscope.wipo.int/search/en/detail.jsf?docId=WO2002064011
p828
aVhttps://patentscope.wipo.int/search/en/detail.jsf?docId=WO2002065443
p829
aVhttps://patentscope.wipo.int/search/en/detail.jsf?docId=WO2002067271
p830
aVhttps://patentscope.wipo.int/search/en/detail.jsf?docId=WO2002065230
p831
aVhttps://patentscope.wipo.int/search/en/detail.jsf?docId=WO2002067240
p832
aVhttps://patentscope.wipo.int/search/en/detail.jsf?docId=WO2002066093
p833
aVhttps://patentscope.wipo.int/search/en/detail.jsf?docId=WO2002065977
p834
aVhttps://patentscope.wipo.int/search/en/detail.jsf?docId=WO2002067429
p835
aVhttps://patentscope.wipo.int/search/en/detail.jsf?docId=WO2002067014
p836
aVhttps://patentscope.wipo.int/search/en/detail.jsf?docId=WO2002067075
p837
aVhttps://patentscope.wipo.int/search/en/detail.jsf?docId=WO2002076263
p838
aVhttps://patentscope.wipo.int/search/en/detail.jsf?docId=WO2002067278
p839
aVhttps://patentscope.wipo.int/search/en/detail.jsf?docId=WO2002076189
p840
aVhttps://patentscope.wipo.int/search/en/detail.jsf?docId=WO2002069121
p841
aVhttps://patentscope.wipo.int/search/en/detail.jsf?docId=WO2002069693
p842
aVhttps://patentscope.wipo.int/search/en/detail.jsf?docId=WO2002067848
p843
aVhttps://patentscope.wipo.int/search/en/detail.jsf?docId=WO2002067849
p844
aVhttps://patentscope.wipo.int/search/en/detail.jsf?docId=WO2002068012
p845
aVhttps://patentscope.wipo.int/search/en/detail.jsf?docId=WO2002068125
p846
aVhttps://patentscope.wipo.int/search/en/detail.jsf?docId=WO2002071224
p847
aVhttps://patentscope.wipo.int/search/en/detail.jsf?docId=WO2002070019
p848
aVhttps://patentscope.wipo.int/search/en/detail.jsf?docId=WO2002070181
p849
aVhttps://patentscope.wipo.int/search/en/detail.jsf?docId=WO2002071220
p850
aVhttps://patentscope.wipo.int/search/en/detail.jsf?docId=WO2002071405
p851
aVhttps://patentscope.wipo.int/search/en/detail.jsf?docId=WO2002071727
p852
aVhttps://patentscope.wipo.int/search/en/detail.jsf?docId=WO2002070647
p853
aVhttps://patentscope.wipo.int/search/en/detail.jsf?docId=WO2003074799
p854
aVhttps://patentscope.wipo.int/search/en/detail.jsf?docId=WO2002070398
p855
aVhttps://patentscope.wipo.int/search/en/detail.jsf?docId=WO2002072411
p856
aVhttps://patentscope.wipo.int/search/en/detail.jsf?docId=WO2002071765
p857
aVhttps://patentscope.wipo.int/search/en/detail.jsf?docId=WO2002071024
p858
aVhttps://patentscope.wipo.int/search/en/detail.jsf?docId=WO2002071176
p859
aVhttps://patentscope.wipo.int/search/en/detail.jsf?docId=WO2002077452
p860
aVhttps://patentscope.wipo.int/search/en/detail.jsf?docId=WO2002072352
p861
aVhttps://patentscope.wipo.int/search/en/detail.jsf?docId=WO2002073939
p862
aVhttps://patentscope.wipo.int/search/en/detail.jsf?docId=WO2002073235
p863
aVhttps://patentscope.wipo.int/search/en/detail.jsf?docId=WO2002072188
p864
aVhttps://patentscope.wipo.int/search/en/detail.jsf?docId=WO2002078868
p865
aVhttps://patentscope.wipo.int/search/en/detail.jsf?docId=WO2002073333
p866
aVhttps://patentscope.wipo.int/search/en/detail.jsf?docId=WO2002073526
p867
aVhttps://patentscope.wipo.int/search/en/detail.jsf?docId=WO2002074233
p868
aVhttps://patentscope.wipo.int/search/en/detail.jsf?docId=WO2002073948
p869
aVhttps://patentscope.wipo.int/search/en/detail.jsf?docId=WO2002073498
p870
aVhttps://patentscope.wipo.int/search/en/detail.jsf?docId=WO2002074188
p871
aVhttps://patentscope.wipo.int/search/en/detail.jsf?docId=WO2002079376
p872
aVhttps://patentscope.wipo.int/search/en/detail.jsf?docId=WO2002074189
p873
aVhttps://patentscope.wipo.int/search/en/detail.jsf?docId=WO2002074190
p874
aVhttps://patentscope.wipo.int/search/en/detail.jsf?docId=WO2002074155
p875
aVhttps://patentscope.wipo.int/search/en/detail.jsf?docId=WO2002075584
p876
aVhttps://patentscope.wipo.int/search/en/detail.jsf?docId=WO2002079749
p877
aVhttps://patentscope.wipo.int/search/en/detail.jsf?docId=WO2002075475
p878
aVhttps://patentscope.wipo.int/search/en/detail.jsf?docId=WO2002075235
p879
aVhttps://patentscope.wipo.int/search/en/detail.jsf?docId=WO2002075348
p880
aVhttps://patentscope.wipo.int/search/en/detail.jsf?docId=WO2002076279
p881
aVhttps://patentscope.wipo.int/search/en/detail.jsf?docId=WO2002076717
p882
aVhttps://patentscope.wipo.int/search/en/detail.jsf?docId=WO2002078199
p883
aVhttps://patentscope.wipo.int/search/en/detail.jsf?docId=WO2003081374
p884
aVhttps://patentscope.wipo.int/search/en/detail.jsf?docId=WO2003081838
p885
aVhttps://patentscope.wipo.int/search/en/detail.jsf?docId=WO2002079996
p886
aVhttps://patentscope.wipo.int/search/en/detail.jsf?docId=WO2002080752
p887
aVhttps://patentscope.wipo.int/search/en/detail.jsf?docId=WO2002082356
p888
aVhttps://patentscope.wipo.int/search/en/detail.jsf?docId=WO2002078597
p889
aVhttps://patentscope.wipo.int/search/en/detail.jsf?docId=WO2002080376
p890
aVhttps://patentscope.wipo.int/search/en/detail.jsf?docId=WO2002079121
p891
aVhttps://patentscope.wipo.int/search/en/detail.jsf?docId=WO2002078598
p892
aVhttps://patentscope.wipo.int/search/en/detail.jsf?docId=WO2002078906
p893
aVhttps://patentscope.wipo.int/search/en/detail.jsf?docId=WO2002080354
p894
aVhttps://patentscope.wipo.int/search/en/detail.jsf?docId=WO2002082354
p895
aVhttps://patentscope.wipo.int/search/en/detail.jsf?docId=WO2002082668
p896
aVhttps://patentscope.wipo.int/search/en/detail.jsf?docId=WO2002080012
p897
aVhttps://patentscope.wipo.int/search/en/detail.jsf?docId=WO2002080416
p898
aVhttps://patentscope.wipo.int/search/en/detail.jsf?docId=WO2002082488
p899
aVhttps://patentscope.wipo.int/search/en/detail.jsf?docId=WO2002078869
p900
aVhttps://patentscope.wipo.int/search/en/detail.jsf?docId=WO2003038695
p901
aVhttps://patentscope.wipo.int/search/en/detail.jsf?docId=WO2002082208
p902
aVhttps://patentscope.wipo.int/search/en/detail.jsf?docId=WO2002080460
p903
aVhttps://patentscope.wipo.int/search/en/detail.jsf?docId=WO2002080997
p904
aVhttps://patentscope.wipo.int/search/en/detail.jsf?docId=WO2002078511
p905
aVhttps://patentscope.wipo.int/search/en/detail.jsf?docId=WO2002079750
p906
aVhttps://patentscope.wipo.int/search/en/detail.jsf?docId=WO2003058489
p907
aVhttps://patentscope.wipo.int/search/en/detail.jsf?docId=WO2002081214
p908
aVhttps://patentscope.wipo.int/search/en/detail.jsf?docId=WO2002080753
p909
aVhttps://patentscope.wipo.int/search/en/detail.jsf?docId=WO2002084634
p910
aVhttps://patentscope.wipo.int/search/en/detail.jsf?docId=WO2002084651
p911
aVhttps://patentscope.wipo.int/search/en/detail.jsf?docId=WO2003088064
p912
aVhttps://patentscope.wipo.int/search/en/detail.jsf?docId=WO2002084990
p913
aVhttps://patentscope.wipo.int/search/en/detail.jsf?docId=WO2002083335
p914
aVhttps://patentscope.wipo.int/search/en/detail.jsf?docId=WO2002083122
p915
aVhttps://patentscope.wipo.int/search/en/detail.jsf?docId=WO2002083058
p916
aVhttps://patentscope.wipo.int/search/en/detail.jsf?docId=WO2002084248
p917
aVhttps://patentscope.wipo.int/search/en/detail.jsf?docId=WO2002084635
p918
aVhttps://patentscope.wipo.int/search/en/detail.jsf?docId=WO2002083195
p919
aVhttps://patentscope.wipo.int/search/en/detail.jsf?docId=WO2003086272
p920
aVhttps://patentscope.wipo.int/search/en/detail.jsf?docId=WO2002083022
p921
aVhttps://patentscope.wipo.int/search/en/detail.jsf?docId=WO2002085178
p922
aVhttps://patentscope.wipo.int/search/en/detail.jsf?docId=WO2002087058
p923
aVhttps://patentscope.wipo.int/search/en/detail.jsf?docId=WO2002085640
p924
aVhttps://patentscope.wipo.int/search/en/detail.jsf?docId=WO2002085641
p925
aVhttps://patentscope.wipo.int/search/en/detail.jsf?docId=WO2002087410
p926
aVhttps://patentscope.wipo.int/search/en/detail.jsf?docId=WO2002085245
p927
aVhttps://patentscope.wipo.int/search/en/detail.jsf?docId=WO2002089450
p928
aVhttps://patentscope.wipo.int/search/en/detail.jsf?docId=WO2002087683
p929
aVhttps://patentscope.wipo.int/search/en/detail.jsf?docId=WO2002082255
p930
aVhttps://patentscope.wipo.int/search/en/detail.jsf?docId=WO2003098018
p931
aVhttps://patentscope.wipo.int/search/en/detail.jsf?docId=WO2002099354
p932
aVhttps://patentscope.wipo.int/search/en/detail.jsf?docId=WO2002088301
p933
aVhttps://patentscope.wipo.int/search/en/detail.jsf?docId=WO2002087411
p934
aVhttps://patentscope.wipo.int/search/en/detail.jsf?docId=WO2002090264
p935
aVhttps://patentscope.wipo.int/search/en/detail.jsf?docId=WO2003064359
p936
aVhttps://patentscope.wipo.int/search/en/detail.jsf?docId=WO2002089654
p937
aVhttps://patentscope.wipo.int/search/en/detail.jsf?docId=WO2002090153
p938
aVhttps://patentscope.wipo.int/search/en/detail.jsf?docId=WO2002090770
p939
aVhttps://patentscope.wipo.int/search/en/detail.jsf?docId=WO2002096806
p940
aVhttps://patentscope.wipo.int/search/en/detail.jsf?docId=WO2002091641
p941
aVhttps://patentscope.wipo.int/search/en/detail.jsf?docId=WO2002090574
p942
aVhttps://patentscope.wipo.int/search/en/detail.jsf?docId=WO2002092144
p943
aVhttps://patentscope.wipo.int/search/en/detail.jsf?docId=WO2002102223
p944
aVhttps://patentscope.wipo.int/search/en/detail.jsf?docId=WO2002096089
p945
aVhttps://patentscope.wipo.int/search/en/detail.jsf?docId=WO2002094337
p946
aVhttps://patentscope.wipo.int/search/en/detail.jsf?docId=WO2002095351
p947
aVhttps://patentscope.wipo.int/search/en/detail.jsf?docId=WO2002094080
p948
aVhttps://patentscope.wipo.int/search/en/detail.jsf?docId=WO2002095317
p949
aVhttps://patentscope.wipo.int/search/en/detail.jsf?docId=WO2002094065
p950
aVhttps://patentscope.wipo.int/search/en/detail.jsf?docId=WO2002096007
p951
aVhttps://patentscope.wipo.int/search/en/detail.jsf?docId=WO2002095297
p952
aVhttps://patentscope.wipo.int/search/en/detail.jsf?docId=WO2002095888
p953
aVhttps://patentscope.wipo.int/search/en/detail.jsf?docId=WO2003022506
p954
aVhttps://patentscope.wipo.int/search/en/detail.jsf?docId=WO2002099557
p955
aVhttps://patentscope.wipo.int/search/en/detail.jsf?docId=WO2002096312
p956
aVhttps://patentscope.wipo.int/search/en/detail.jsf?docId=WO2002097941
p957
aVhttps://patentscope.wipo.int/search/en/detail.jsf?docId=WO2003101842
p958
aVhttps://patentscope.wipo.int/search/en/detail.jsf?docId=WO2002098318
p959
aVhttps://patentscope.wipo.int/search/en/detail.jsf?docId=WO2002099321
p960
aVhttps://patentscope.wipo.int/search/en/detail.jsf?docId=WO2002099817
p961
aVhttps://patentscope.wipo.int/search/en/detail.jsf?docId=WO2002098732
p962
aVhttps://patentscope.wipo.int/search/en/detail.jsf?docId=WO2002099776
p963
aVhttps://patentscope.wipo.int/search/en/detail.jsf?docId=WO2002100287
p964
aVhttps://patentscope.wipo.int/search/en/detail.jsf?docId=WO2002103517
p965
aVhttps://patentscope.wipo.int/search/en/detail.jsf?docId=WO2003015861
p966
aVhttps://patentscope.wipo.int/search/en/detail.jsf?docId=WO2002103461
p967
aVhttps://patentscope.wipo.int/search/en/detail.jsf?docId=WO2003001091
p968
aVhttps://patentscope.wipo.int/search/en/detail.jsf?docId=WO2002103386
p969
aVhttps://patentscope.wipo.int/search/en/detail.jsf?docId=WO2002103387
p970
aVhttps://patentscope.wipo.int/search/en/detail.jsf?docId=WO2002103389
p971
aVhttps://patentscope.wipo.int/search/en/detail.jsf?docId=WO2002103943
p972
aVhttps://patentscope.wipo.int/search/en/detail.jsf?docId=WO2002103402
p973
aVhttps://patentscope.wipo.int/search/en/detail.jsf?docId=WO2002102224
p974
aVhttps://patentscope.wipo.int/search/en/detail.jsf?docId=WO2003001167
p975
aVhttps://patentscope.wipo.int/search/en/detail.jsf?docId=WO2002102704
p976
aVhttps://patentscope.wipo.int/search/en/detail.jsf?docId=WO2002103436
p977
aVhttps://patentscope.wipo.int/search/en/detail.jsf?docId=WO2003073788
p978
aVhttps://patentscope.wipo.int/search/en/detail.jsf?docId=WO2003001497
p979
aVhttps://patentscope.wipo.int/search/en/detail.jsf?docId=WO2003056802
p980
aVhttps://patentscope.wipo.int/search/en/detail.jsf?docId=WO2003000173
p981
aVhttps://patentscope.wipo.int/search/en/detail.jsf?docId=WO2003001113
p982
aVhttps://patentscope.wipo.int/search/en/detail.jsf?docId=WO2003001035
p983
aVhttps://patentscope.wipo.int/search/en/detail.jsf?docId=WO2003003058
p984
aVhttps://patentscope.wipo.int/search/en/detail.jsf?docId=WO2004000116
p985
aVhttps://patentscope.wipo.int/search/en/detail.jsf?docId=WO2003002773
p986
aVhttps://patentscope.wipo.int/search/en/detail.jsf?docId=WO2003001318
p987
aVhttps://patentscope.wipo.int/search/en/detail.jsf?docId=WO2003000174
p988
aVhttps://patentscope.wipo.int/search/en/detail.jsf?docId=WO2003002243
p989
aVhttps://patentscope.wipo.int/search/en/detail.jsf?docId=WO2004003307
p990
aVhttps://patentscope.wipo.int/search/en/detail.jsf?docId=WO2003005412
p991
aVhttps://patentscope.wipo.int/search/en/detail.jsf?docId=WO2003006097
p992
aVhttps://patentscope.wipo.int/search/en/detail.jsf?docId=WO2003004351
p993
aVhttps://patentscope.wipo.int/search/en/detail.jsf?docId=WO2003005066
p994
aVhttps://patentscope.wipo.int/search/en/detail.jsf?docId=WO2003004021
p995
aVhttps://patentscope.wipo.int/search/en/detail.jsf?docId=WO2003004577
p996
aVhttps://patentscope.wipo.int/search/en/detail.jsf?docId=WO2003004387
p997
aVhttps://patentscope.wipo.int/search/en/detail.jsf?docId=WO2003004599
p998
aVhttps://patentscope.wipo.int/search/en/detail.jsf?docId=WO2003003899
p999
aVhttps://patentscope.wipo.int/search/en/detail.jsf?docId=WO2003005697
p1000
aVhttps://patentscope.wipo.int/search/en/detail.jsf?docId=WO2003005831
p1001
aVhttps://patentscope.wipo.int/search/en/detail.jsf?docId=WO2003006512
p1002
aVhttps://patentscope.wipo.int/search/en/detail.jsf?docId=WO2003007104
p1003
aVhttps://patentscope.wipo.int/search/en/detail.jsf?docId=WO2003005877
p1004
aVhttps://patentscope.wipo.int/search/en/detail.jsf?docId=WO2003007486
p1005
aVhttps://patentscope.wipo.int/search/en/detail.jsf?docId=WO2003010560
p1006
aVhttps://patentscope.wipo.int/search/en/detail.jsf?docId=WO2003009482
p1007
aVhttps://patentscope.wipo.int/search/en/detail.jsf?docId=WO2003009513
p1008
aVhttps://patentscope.wipo.int/search/en/detail.jsf?docId=WO2003008927
p1009
aVhttps://patentscope.wipo.int/search/en/detail.jsf?docId=WO2003009801
p1010
aVhttps://patentscope.wipo.int/search/en/detail.jsf?docId=WO2003009174
p1011
aVhttps://patentscope.wipo.int/search/en/detail.jsf?docId=WO2003009591
p1012
aVhttps://patentscope.wipo.int/search/en/detail.jsf?docId=WO2003008276
p1013
aVhttps://patentscope.wipo.int/search/en/detail.jsf?docId=WO2003009008
p1014
aVhttps://patentscope.wipo.int/search/en/detail.jsf?docId=WO2003008143
p1015
aVhttps://patentscope.wipo.int/search/en/detail.jsf?docId=WO2004008427
p1016
aVhttps://patentscope.wipo.int/search/en/detail.jsf?docId=WO2003009798
p1017
aVhttps://patentscope.wipo.int/search/en/detail.jsf?docId=WO2003009175
p1018
aVhttps://patentscope.wipo.int/search/en/detail.jsf?docId=WO2003010745
p1019
aVhttps://patentscope.wipo.int/search/en/detail.jsf?docId=WO2003009278
p1020
aVhttps://patentscope.wipo.int/search/en/detail.jsf?docId=WO2003009965
p1021
aVhttps://patentscope.wipo.int/search/en/detail.jsf?docId=WO2003009738
p1022
aVhttps://patentscope.wipo.int/search/en/detail.jsf?docId=WO2003013959
p1023
aVhttps://patentscope.wipo.int/search/en/detail.jsf?docId=WO2003012576
p1024
aVhttps://patentscope.wipo.int/search/en/detail.jsf?docId=WO2003012577
p1025
aVhttps://patentscope.wipo.int/search/en/detail.jsf?docId=WO2003010967
p1026
aVhttps://patentscope.wipo.int/search/en/detail.jsf?docId=WO2003009739
p1027
aVhttps://patentscope.wipo.int/search/en/detail.jsf?docId=WO2004011078
p1028
aVhttps://patentscope.wipo.int/search/en/detail.jsf?docId=WO2003036411
p1029
aVhttps://patentscope.wipo.int/search/en/detail.jsf?docId=WO2003011468
p1030
aVhttps://patentscope.wipo.int/search/en/detail.jsf?docId=WO2003012029
p1031
aVhttps://patentscope.wipo.int/search/en/detail.jsf?docId=WO2003011103
p1032
aVhttps://patentscope.wipo.int/search/en/detail.jsf?docId=WO2003013379
p1033
aVhttps://patentscope.wipo.int/search/en/detail.jsf?docId=WO2003014292
p1034
aVhttps://patentscope.wipo.int/search/en/detail.jsf?docId=WO2003014795
p1035
aVhttps://patentscope.wipo.int/search/en/detail.jsf?docId=WO2003013329
p1036
aVhttps://patentscope.wipo.int/search/en/detail.jsf?docId=WO2003015839
p1037
aVhttps://patentscope.wipo.int/search/en/detail.jsf?docId=WO2003013422
p1038
aVhttps://patentscope.wipo.int/search/en/detail.jsf?docId=WO2003014917
p1039
aVhttps://patentscope.wipo.int/search/en/detail.jsf?docId=WO2003015330
p1040
aVhttps://patentscope.wipo.int/search/en/detail.jsf?docId=WO2003017322
p1041
aVhttps://patentscope.wipo.int/search/en/detail.jsf?docId=WO2003013624
p1042
aVhttps://patentscope.wipo.int/search/en/detail.jsf?docId=WO2003017022
p1043
aVhttps://patentscope.wipo.int/search/en/detail.jsf?docId=WO2003015582
p1044
aVhttps://patentscope.wipo.int/search/en/detail.jsf?docId=WO2003017721
p1045
aVhttps://patentscope.wipo.int/search/en/detail.jsf?docId=WO2003016147
p1046
aVhttps://patentscope.wipo.int/search/en/detail.jsf?docId=WO2003105609
p1047
aVhttps://patentscope.wipo.int/search/en/detail.jsf?docId=WO2003017817
p1048
aVhttps://patentscope.wipo.int/search/en/detail.jsf?docId=WO2003017136
p1049
aVhttps://patentscope.wipo.int/search/en/detail.jsf?docId=WO2003016847
p1050
aVhttps://patentscope.wipo.int/search/en/detail.jsf?docId=WO2003017501
p1051
aVhttps://patentscope.wipo.int/search/en/detail.jsf?docId=WO2003017392
p1052
aVhttps://patentscope.wipo.int/search/en/detail.jsf?docId=WO2003017024
p1053
aVhttps://patentscope.wipo.int/search/en/detail.jsf?docId=WO2003017551
p1054
aVhttps://patentscope.wipo.int/search/en/detail.jsf?docId=WO2003022122
p1055
aVhttps://patentscope.wipo.int/search/en/detail.jsf?docId=WO2003021372
p1056
aVhttps://patentscope.wipo.int/search/en/detail.jsf?docId=WO2003019840
p1057
aVhttps://patentscope.wipo.int/search/en/detail.jsf?docId=WO2003019133
p1058
aVhttps://patentscope.wipo.int/search/en/detail.jsf?docId=WO2003018081
p1059
aVhttps://patentscope.wipo.int/search/en/detail.jsf?docId=WO2004019679
p1060
aVhttps://patentscope.wipo.int/search/en/detail.jsf?docId=WO2003019404
p1061
aVhttps://patentscope.wipo.int/search/en/detail.jsf?docId=WO2003018106
p1062
aVhttps://patentscope.wipo.int/search/en/detail.jsf?docId=WO2003024387
p1063
aVhttps://patentscope.wipo.int/search/en/detail.jsf?docId=WO2003020102
p1064
aVhttps://patentscope.wipo.int/search/en/detail.jsf?docId=WO2003020103
p1065
aVhttps://patentscope.wipo.int/search/en/detail.jsf?docId=WO2003021529
p1066
aVhttps://patentscope.wipo.int/search/en/detail.jsf?docId=WO2003020698
p1067
aVhttps://patentscope.wipo.int/search/en/detail.jsf?docId=WO2003021315
p1068
aVhttps://patentscope.wipo.int/search/en/detail.jsf?docId=WO2003021374
p1069
aVhttps://patentscope.wipo.int/search/en/detail.jsf?docId=WO2003024169
p1070
aVhttps://patentscope.wipo.int/search/en/detail.jsf?docId=WO2003022325
p1071
aVhttps://patentscope.wipo.int/search/en/detail.jsf?docId=WO2003023291
p1072
aVhttps://patentscope.wipo.int/search/en/detail.jsf?docId=WO2003023311
p1073
aVhttps://patentscope.wipo.int/search/en/detail.jsf?docId=WO2003024609
p1074
aVhttps://patentscope.wipo.int/search/en/detail.jsf?docId=WO2003024661
p1075
aVhttps://patentscope.wipo.int/search/en/detail.jsf?docId=WO2003032106
p1076
aVhttps://patentscope.wipo.int/search/en/detail.jsf?docId=WO2003026272
p1077
aVhttps://patentscope.wipo.int/search/en/detail.jsf?docId=WO2003025195
p1078
aVhttps://patentscope.wipo.int/search/en/detail.jsf?docId=WO2003025696
p1079
aVhttps://patentscope.wipo.int/search/en/detail.jsf?docId=WO2003028224
p1080
aVhttps://patentscope.wipo.int/search/en/detail.jsf?docId=WO2003028358
p1081
aVhttps://patentscope.wipo.int/search/en/detail.jsf?docId=WO2003034699
p1082
aVhttps://patentscope.wipo.int/search/en/detail.jsf?docId=WO2003026474
p1083
aVhttps://patentscope.wipo.int/search/en/detail.jsf?docId=WO2003027027
p1084
aVhttps://patentscope.wipo.int/search/en/detail.jsf?docId=WO2003026476
p1085
aVhttps://patentscope.wipo.int/search/en/detail.jsf?docId=WO2003028521
p1086
aVhttps://patentscope.wipo.int/search/en/detail.jsf?docId=WO2003038988
p1087
aVhttps://patentscope.wipo.int/search/en/detail.jsf?docId=WO2004030687
p1088
aVhttps://patentscope.wipo.int/search/en/detail.jsf?docId=WO2003056890
p1089
aVhttps://patentscope.wipo.int/search/en/detail.jsf?docId=WO2003032895
p1090
aVhttps://patentscope.wipo.int/search/en/detail.jsf?docId=WO2003029149
p1091
aVhttps://patentscope.wipo.int/search/en/detail.jsf?docId=WO2003034011
p1092
aVhttps://patentscope.wipo.int/search/en/detail.jsf?docId=WO2003031565
p1093
aVhttps://patentscope.wipo.int/search/en/detail.jsf?docId=WO2003039987
p1094
aVhttps://patentscope.wipo.int/search/en/detail.jsf?docId=WO2003032018
p1095
aVhttps://patentscope.wipo.int/search/en/detail.jsf?docId=WO2003033645
p1096
aVhttps://patentscope.wipo.int/search/en/detail.jsf?docId=WO2003033395
p1097
aVhttps://patentscope.wipo.int/search/en/detail.jsf?docId=WO2003034978
p1098
aVhttps://patentscope.wipo.int/search/en/detail.jsf?docId=WO2003038321
p1099
aVhttps://patentscope.wipo.int/search/en/detail.jsf?docId=WO2003040064
p1100
aVhttps://patentscope.wipo.int/search/en/detail.jsf?docId=WO2003048704
p1101
aVhttps://patentscope.wipo.int/search/en/detail.jsf?docId=WO2003059180
p1102
aVhttps://patentscope.wipo.int/search/en/detail.jsf?docId=WO2003047498
p1103
aVhttps://patentscope.wipo.int/search/en/detail.jsf?docId=WO2003045577
p1104
aVhttps://patentscope.wipo.int/search/en/detail.jsf?docId=WO2003055437
p1105
aVhttps://patentscope.wipo.int/search/en/detail.jsf?docId=WO2003047501
p1106
aVhttps://patentscope.wipo.int/search/en/detail.jsf?docId=WO2003050643
p1107
aVhttps://patentscope.wipo.int/search/en/detail.jsf?docId=WO2003053226
p1108
aVhttps://patentscope.wipo.int/search/en/detail.jsf?docId=WO2003052865
p1109
aVhttps://patentscope.wipo.int/search/en/detail.jsf?docId=WO2003051453
p1110
aVhttps://patentscope.wipo.int/search/en/detail.jsf?docId=WO2003052543
p1111
aVhttps://patentscope.wipo.int/search/en/detail.jsf?docId=WO2003054625
p1112
aVhttps://patentscope.wipo.int/search/en/detail.jsf?docId=WO2003060042
p1113
aVhttps://patentscope.wipo.int/search/en/detail.jsf?docId=WO2003060823
p1114
aVhttps://patentscope.wipo.int/search/en/detail.jsf?docId=WO2003059932
p1115
aVhttps://patentscope.wipo.int/search/en/detail.jsf?docId=WO2003067360
p1116
aVhttps://patentscope.wipo.int/search/en/detail.jsf?docId=WO2004059851
p1117
aVhttps://patentscope.wipo.int/search/en/detail.jsf?docId=WO2003062942
p1118
aVhttps://patentscope.wipo.int/search/en/detail.jsf?docId=WO2003058174
p1119
aVhttps://patentscope.wipo.int/search/en/detail.jsf?docId=WO2003060462
p1120
aVhttps://patentscope.wipo.int/search/en/detail.jsf?docId=WO2003057465
p1121
aVhttps://patentscope.wipo.int/search/en/detail.jsf?docId=WO2003060268
p1122
aVhttps://patentscope.wipo.int/search/en/detail.jsf?docId=WO2003059248
p1123
aVhttps://patentscope.wipo.int/search/en/detail.jsf?docId=WO2003059036
p1124
aVhttps://patentscope.wipo.int/search/en/detail.jsf?docId=WO2003057000
p1125
aVhttps://patentscope.wipo.int/search/en/detail.jsf?docId=WO2003057001
p1126
aVhttps://patentscope.wipo.int/search/en/detail.jsf?docId=WO2003057472
p1127
aVhttps://patentscope.wipo.int/search/en/detail.jsf?docId=WO2003058888
p1128
aVhttps://patentscope.wipo.int/search/en/detail.jsf?docId=WO2003057939
p1129
aVhttps://patentscope.wipo.int/search/en/detail.jsf?docId=WO2003058069
p1130
aVhttps://patentscope.wipo.int/search/en/detail.jsf?docId=WO2003065775
p1131
aVhttps://patentscope.wipo.int/search/en/detail.jsf?docId=WO2003065959
p1132
aVhttps://patentscope.wipo.int/search/en/detail.jsf?docId=WO2003070373
p1133
aVhttps://patentscope.wipo.int/search/en/detail.jsf?docId=WO2003070081
p1134
aVhttps://patentscope.wipo.int/search/en/detail.jsf?docId=WO2003069368
p1135
aVhttps://patentscope.wipo.int/search/en/detail.jsf?docId=WO2003069913
p1136
aVhttps://patentscope.wipo.int/search/en/detail.jsf?docId=WO2003069536
p1137
aVhttps://patentscope.wipo.int/search/en/detail.jsf?docId=WO2003068529
p1138
aVhttps://patentscope.wipo.int/search/en/detail.jsf?docId=WO2003070153
p1139
aVhttps://patentscope.wipo.int/search/en/detail.jsf?docId=WO2003070043
p1140
aVhttps://patentscope.wipo.int/search/en/detail.jsf?docId=WO2003070082
p1141
aVhttps://patentscope.wipo.int/search/en/detail.jsf?docId=WO2003075623
p1142
aVhttps://patentscope.wipo.int/search/en/detail.jsf?docId=WO2003075118
p1143
aVhttps://patentscope.wipo.int/search/en/detail.jsf?docId=WO2003076018
p1144
aVhttps://patentscope.wipo.int/search/en/detail.jsf?docId=WO2003074326
p1145
aVhttps://patentscope.wipo.int/search/en/detail.jsf?docId=WO2003077187
p1146
aVhttps://patentscope.wipo.int/search/en/detail.jsf?docId=WO2003081201
p1147
aVhttps://patentscope.wipo.int/search/en/detail.jsf?docId=WO2003086688
p1148
aVhttps://patentscope.wipo.int/search/en/detail.jsf?docId=WO2003082400
p1149
aVhttps://patentscope.wipo.int/search/en/detail.jsf?docId=WO2003082155
p1150
aVhttps://patentscope.wipo.int/search/en/detail.jsf?docId=WO2003082369
p1151
aVhttps://patentscope.wipo.int/search/en/detail.jsf?docId=WO2003082581
p1152
aVhttps://patentscope.wipo.int/search/en/detail.jsf?docId=WO2003083670
p1153
aVhttps://patentscope.wipo.int/search/en/detail.jsf?docId=WO2003084381
p1154
aVhttps://patentscope.wipo.int/search/en/detail.jsf?docId=WO2003084382
p1155
aVhttps://patentscope.wipo.int/search/en/detail.jsf?docId=WO2003084383
p1156
aVhttps://patentscope.wipo.int/search/en/detail.jsf?docId=WO2003086670
p1157
aVhttps://patentscope.wipo.int/search/en/detail.jsf?docId=WO2003087884
p1158
aVhttps://patentscope.wipo.int/search/en/detail.jsf?docId=WO2003085371
p1159
aVhttps://patentscope.wipo.int/search/en/detail.jsf?docId=WO2003088580
p1160
aVhttps://patentscope.wipo.int/search/en/detail.jsf?docId=WO2003087494
p1161
aVhttps://patentscope.wipo.int/search/en/detail.jsf?docId=WO2003087885
p1162
aVhttps://patentscope.wipo.int/search/en/detail.jsf?docId=WO2003087975
p1163
aVhttps://patentscope.wipo.int/search/en/detail.jsf?docId=WO2003086431
p1164
aVhttps://patentscope.wipo.int/search/en/detail.jsf?docId=WO2003088203
p1165
aVhttps://patentscope.wipo.int/search/en/detail.jsf?docId=WO2003088628
p1166
aVhttps://patentscope.wipo.int/search/en/detail.jsf?docId=WO2003086274
p1167
aVhttps://patentscope.wipo.int/search/en/detail.jsf?docId=WO2004093325
p1168
aVhttps://patentscope.wipo.int/search/en/detail.jsf?docId=WO2003086498
p1169
aVhttps://patentscope.wipo.int/search/en/detail.jsf?docId=WO2003090189
p1170
aVhttps://patentscope.wipo.int/search/en/detail.jsf?docId=WO2003096077
p1171
aVhttps://patentscope.wipo.int/search/en/detail.jsf?docId=WO2003090828
p1172
aVhttps://patentscope.wipo.int/search/en/detail.jsf?docId=WO2003091763
p1173
aVhttps://patentscope.wipo.int/search/en/detail.jsf?docId=WO2003090618
p1174
aVhttps://patentscope.wipo.int/search/en/detail.jsf?docId=WO2003093409
p1175
aVhttps://patentscope.wipo.int/search/en/detail.jsf?docId=WO2003095164
p1176
aVhttps://patentscope.wipo.int/search/en/detail.jsf?docId=WO2003099532
p1177
aVhttps://patentscope.wipo.int/search/en/detail.jsf?docId=WO2005003984
p1178
aVhttps://patentscope.wipo.int/search/en/detail.jsf?docId=WO2003092820
p1179
aVhttps://patentscope.wipo.int/search/en/detail.jsf?docId=WO2003098528
p1180
aVhttps://patentscope.wipo.int/search/en/detail.jsf?docId=WO2003094695
p1181
aVhttps://patentscope.wipo.int/search/en/detail.jsf?docId=WO2003094734
p1182
aVhttps://patentscope.wipo.int/search/en/detail.jsf?docId=WO2003094936
p1183
aVhttps://patentscope.wipo.int/search/en/detail.jsf?docId=WO2003094723
p1184
aVhttps://patentscope.wipo.int/search/en/detail.jsf?docId=WO2003096789
p1185
aVhttps://patentscope.wipo.int/search/en/detail.jsf?docId=WO2003098913
p1186
aVhttps://patentscope.wipo.int/search/en/detail.jsf?docId=WO2003097404
p1187
aVhttps://patentscope.wipo.int/search/en/detail.jsf?docId=WO2003099373
p1188
aVhttps://patentscope.wipo.int/search/en/detail.jsf?docId=WO2004056244
p1189
aVhttps://patentscope.wipo.int/search/en/detail.jsf?docId=WO2003105659
p1190
aVhttps://patentscope.wipo.int/search/en/detail.jsf?docId=WO2004001983
p1191
aVhttps://patentscope.wipo.int/search/en/detail.jsf?docId=WO2004004934
p1192
aVhttps://patentscope.wipo.int/search/en/detail.jsf?docId=WO2004008095
p1193
aVhttps://patentscope.wipo.int/search/en/detail.jsf?docId=WO2004006748
p1194
aVhttps://patentscope.wipo.int/search/en/detail.jsf?docId=WO2004010549
p1195
aVhttps://patentscope.wipo.int/search/en/detail.jsf?docId=WO2004010331
p1196
aVhttps://patentscope.wipo.int/search/en/detail.jsf?docId=WO2004008981
p1197
aVhttps://patentscope.wipo.int/search/en/detail.jsf?docId=WO2004012422
p1198
aVhttps://patentscope.wipo.int/search/en/detail.jsf?docId=WO2004011056
p1199
aVhttps://patentscope.wipo.int/search/en/detail.jsf?docId=WO2004015655
p1200
aVhttps://patentscope.wipo.int/search/en/detail.jsf?docId=WO2004016035
p1201
aVhttps://patentscope.wipo.int/search/en/detail.jsf?docId=WO2004018287
p1202
aVhttps://patentscope.wipo.int/search/en/detail.jsf?docId=WO2004017148
p1203
aVhttps://patentscope.wipo.int/search/en/detail.jsf?docId=WO2005018097
p1204
aVhttps://patentscope.wipo.int/search/en/detail.jsf?docId=WO2004019778
p1205
aVhttps://patentscope.wipo.int/search/en/detail.jsf?docId=WO2004022185
p1206
aVhttps://patentscope.wipo.int/search/en/detail.jsf?docId=WO2004024516
p1207
aVhttps://patentscope.wipo.int/search/en/detail.jsf?docId=WO2005026524
p1208
aVhttps://patentscope.wipo.int/search/en/detail.jsf?docId=WO2004028229
p1209
aVhttps://patentscope.wipo.int/search/en/detail.jsf?docId=WO2004031343
p1210
aVhttps://patentscope.wipo.int/search/en/detail.jsf?docId=WO2004036761
p1211
aVhttps://patentscope.wipo.int/search/en/detail.jsf?docId=WO2004032824
p1212
aVhttps://patentscope.wipo.int/search/en/detail.jsf?docId=WO2004039024
p1213
aVhttps://patentscope.wipo.int/search/en/detail.jsf?docId=WO2004038321
p1214
aVhttps://patentscope.wipo.int/search/en/detail.jsf?docId=WO2004040464
p1215
aVhttps://patentscope.wipo.int/search/en/detail.jsf?docId=WO2004039428
p1216
aVhttps://patentscope.wipo.int/search/en/detail.jsf?docId=WO2004041151
p1217
aVhttps://patentscope.wipo.int/search/en/detail.jsf?docId=WO2005043984
p1218
aVhttps://patentscope.wipo.int/search/en/detail.jsf?docId=WO2004045363
p1219
aVhttps://patentscope.wipo.int/search/en/detail.jsf?docId=WO2004044760
p1220
aVhttps://patentscope.wipo.int/search/en/detail.jsf?docId=WO2004059462
p1221
aVhttps://patentscope.wipo.int/search/en/detail.jsf?docId=WO2004069148
p1222
aVhttps://patentscope.wipo.int/search/en/detail.jsf?docId=WO2004080273
p1223
aVhttps://patentscope.wipo.int/search/en/detail.jsf?docId=WO2004081029
p1224
aVhttps://patentscope.wipo.int/search/en/detail.jsf?docId=WO2004088787
p1225
aVhttps://patentscope.wipo.int/search/en/detail.jsf?docId=WO2004090937
p1226
aVhttps://patentscope.wipo.int/search/en/detail.jsf?docId=WO2004094016
p1227
aVhttps://patentscope.wipo.int/search/en/detail.jsf?docId=WO2004100577
p1228
aVhttps://patentscope.wipo.int/search/en/detail.jsf?docId=WO2004101597
p1229
aVhttps://patentscope.wipo.int/search/en/detail.jsf?docId=WO2004105396
p1230
aVhttps://patentscope.wipo.int/search/en/detail.jsf?docId=WO2004102303
p1231
aVhttps://patentscope.wipo.int/search/en/detail.jsf?docId=WO2004105431
p1232
aVhttps://patentscope.wipo.int/search/en/detail.jsf?docId=WO2005008357
p1233
aVhttps://patentscope.wipo.int/search/en/detail.jsf?docId=WO2004100759
p1234
aVhttps://patentscope.wipo.int/search/en/detail.jsf?docId=WO2004104161
p1235
aVhttps://patentscope.wipo.int/search/en/detail.jsf?docId=WO2004103263
p1236
aVhttps://patentscope.wipo.int/search/en/detail.jsf?docId=WO2004107770
p1237
aVhttps://patentscope.wipo.int/search/en/detail.jsf?docId=WO2004107393
p1238
aVhttps://patentscope.wipo.int/search/en/detail.jsf?docId=WO2004109244
p1239
aVhttps://patentscope.wipo.int/search/en/detail.jsf?docId=WO2004110785
p1240
aVhttps://patentscope.wipo.int/search/en/detail.jsf?docId=WO2005003883
p1241
aVhttps://patentscope.wipo.int/search/en/detail.jsf?docId=WO2005007074
p1242
aVhttps://patentscope.wipo.int/search/en/detail.jsf?docId=WO2005009333
p1243
aVhttps://patentscope.wipo.int/search/en/detail.jsf?docId=WO2006021943
p1244
aVhttps://patentscope.wipo.int/search/en/detail.jsf?docId=WO2006021944
p1245
aVhttps://patentscope.wipo.int/search/en/detail.jsf?docId=WO2005016830
p1246
aVhttps://patentscope.wipo.int/search/en/detail.jsf?docId=WO2005017095
p1247
aVhttps://patentscope.wipo.int/search/en/detail.jsf?docId=WO2005016630
p1248
aVhttps://patentscope.wipo.int/search/en/detail.jsf?docId=WO2005018380
p1249
aVhttps://patentscope.wipo.int/search/en/detail.jsf?docId=WO2005019863
p1250
aVhttps://patentscope.wipo.int/search/en/detail.jsf?docId=WO2005022111
p1251
aVhttps://patentscope.wipo.int/search/en/detail.jsf?docId=WO2005019909
p1252
aVhttps://patentscope.wipo.int/search/en/detail.jsf?docId=WO2005018521
p1253
aVhttps://patentscope.wipo.int/search/en/detail.jsf?docId=WO2005025105
p1254
aVhttps://patentscope.wipo.int/search/en/detail.jsf?docId=WO2005066829
p1255
aVhttps://patentscope.wipo.int/search/en/detail.jsf?docId=WO2005022203
p1256
aVhttps://patentscope.wipo.int/search/en/detail.jsf?docId=WO2005023081
p1257
aVhttps://patentscope.wipo.int/search/en/detail.jsf?docId=WO2005025106
p1258
aVhttps://patentscope.wipo.int/search/en/detail.jsf?docId=WO2005025241
p1259
aVhttps://patentscope.wipo.int/search/en/detail.jsf?docId=WO2005023981
p1260
aVhttps://patentscope.wipo.int/search/en/detail.jsf?docId=WO2005023082
p1261
aVhttps://patentscope.wipo.int/search/en/detail.jsf?docId=WO2006027766
p1262
aVhttps://patentscope.wipo.int/search/en/detail.jsf?docId=WO2005025873
p1263
aVhttps://patentscope.wipo.int/search/en/detail.jsf?docId=WO2005026871
p1264
aVhttps://patentscope.wipo.int/search/en/detail.jsf?docId=WO2005026872
p1265
aVhttps://patentscope.wipo.int/search/en/detail.jsf?docId=WO2005025637
p1266
aVhttps://patentscope.wipo.int/search/en/detail.jsf?docId=WO2005026609
p1267
aVhttps://patentscope.wipo.int/search/en/detail.jsf?docId=WO2005029833
p1268
aVhttps://patentscope.wipo.int/search/en/detail.jsf?docId=WO2005029834
p1269
aVhttps://patentscope.wipo.int/search/en/detail.jsf?docId=WO2005028780
p1270
aVhttps://patentscope.wipo.int/search/en/detail.jsf?docId=WO2005027821
p1271
aVhttps://patentscope.wipo.int/search/en/detail.jsf?docId=WO2005031392
p1272
aVhttps://patentscope.wipo.int/search/en/detail.jsf?docId=WO2005031298
p1273
aVhttps://patentscope.wipo.int/search/en/detail.jsf?docId=WO2005027677
p1274
aVhttps://patentscope.wipo.int/search/en/detail.jsf?docId=WO2005027822
p1275
aVhttps://patentscope.wipo.int/search/en/detail.jsf?docId=WO2005030025
p1276
aVhttps://patentscope.wipo.int/search/en/detail.jsf?docId=WO2005030026
p1277
aVhttps://patentscope.wipo.int/search/en/detail.jsf?docId=WO2005051371
p1278
aVhttps://patentscope.wipo.int/search/en/detail.jsf?docId=WO2005036185
p1279
aVhttps://patentscope.wipo.int/search/en/detail.jsf?docId=WO2005030118
p1280
aVhttps://patentscope.wipo.int/search/en/detail.jsf?docId=WO2005033829
p1281
aVhttps://patentscope.wipo.int/search/en/detail.jsf?docId=WO2005032326
p1282
aVhttps://patentscope.wipo.int/search/en/detail.jsf?docId=WO2005034069
p1283
aVhttps://patentscope.wipo.int/search/en/detail.jsf?docId=WO2005065026
p1284
aVhttps://patentscope.wipo.int/search/en/detail.jsf?docId=WO2005034717
p1285
aVhttps://patentscope.wipo.int/search/en/detail.jsf?docId=WO2005076726
p1286
aVhttps://patentscope.wipo.int/search/en/detail.jsf?docId=WO2005035248
p1287
aVhttps://patentscope.wipo.int/search/en/detail.jsf?docId=WO2005038469
p1288
aVhttps://patentscope.wipo.int/search/en/detail.jsf?docId=WO2005050041
p1289
aVhttps://patentscope.wipo.int/search/en/detail.jsf?docId=WO2005040334
p1290
aVhttps://patentscope.wipo.int/search/en/detail.jsf?docId=WO2005041211
p1291
aVhttps://patentscope.wipo.int/search/en/detail.jsf?docId=WO2005039869
p1292
aVhttps://patentscope.wipo.int/search/en/detail.jsf?docId=WO2005041107
p1293
aVhttps://patentscope.wipo.int/search/en/detail.jsf?docId=WO2005041108
p1294
aVhttps://patentscope.wipo.int/search/en/detail.jsf?docId=WO2005042350
p1295
aVhttps://patentscope.wipo.int/search/en/detail.jsf?docId=WO2005043279
p1296
aVhttps://patentscope.wipo.int/search/en/detail.jsf?docId=WO2005042235
p1297
aVhttps://patentscope.wipo.int/search/en/detail.jsf?docId=WO2005043231
p1298
aVhttps://patentscope.wipo.int/search/en/detail.jsf?docId=WO2005043224
p1299
aVhttps://patentscope.wipo.int/search/en/detail.jsf?docId=WO2005047883
p1300
aVhttps://patentscope.wipo.int/search/en/detail.jsf?docId=WO2005045555
p1301
aVhttps://patentscope.wipo.int/search/en/detail.jsf?docId=WO2005053959
p1302
aVhttps://patentscope.wipo.int/search/en/detail.jsf?docId=WO2005044176
p1303
aVhttps://patentscope.wipo.int/search/en/detail.jsf?docId=WO2005044072
p1304
aVhttps://patentscope.wipo.int/search/en/detail.jsf?docId=WO2005047806
p1305
aVhttps://patentscope.wipo.int/search/en/detail.jsf?docId=WO2005046750
p1306
aVhttps://patentscope.wipo.int/search/en/detail.jsf?docId=WO2005053601
p1307
aVhttps://patentscope.wipo.int/search/en/detail.jsf?docId=WO2005046564
p1308
aVhttps://patentscope.wipo.int/search/en/detail.jsf?docId=WO2005047801
p1309
aVhttps://patentscope.wipo.int/search/en/detail.jsf?docId=WO2005046426
p1310
aVhttps://patentscope.wipo.int/search/en/detail.jsf?docId=WO2005055759
p1311
aVhttps://patentscope.wipo.int/search/en/detail.jsf?docId=WO2005050156
p1312
aVhttps://patentscope.wipo.int/search/en/detail.jsf?docId=WO2005062707
p1313
aVhttps://patentscope.wipo.int/search/en/detail.jsf?docId=WO2005050157
p1314
aVhttps://patentscope.wipo.int/search/en/detail.jsf?docId=WO2005057319
p1315
aVhttps://patentscope.wipo.int/search/en/detail.jsf?docId=WO2005050580
p1316
aVhttps://patentscope.wipo.int/search/en/detail.jsf?docId=WO2005050345
p1317
aVhttps://patentscope.wipo.int/search/en/detail.jsf?docId=WO2005051774
p1318
aVhttps://patentscope.wipo.int/search/en/detail.jsf?docId=WO2006030409
p1319
aVhttps://patentscope.wipo.int/search/en/detail.jsf?docId=WO2005052540
p1320
aVhttps://patentscope.wipo.int/search/en/detail.jsf?docId=WO2005065020
p1321
aVhttps://patentscope.wipo.int/search/en/detail.jsf?docId=WO2005096935
p1322
aVhttps://patentscope.wipo.int/search/en/detail.jsf?docId=WO2005053602
p1323
aVhttps://patentscope.wipo.int/search/en/detail.jsf?docId=WO2005054355
p1324
aVhttps://patentscope.wipo.int/search/en/detail.jsf?docId=WO2005091714
p1325
aVhttps://patentscope.wipo.int/search/en/detail.jsf?docId=WO2005054888
p1326
aVhttps://patentscope.wipo.int/search/en/detail.jsf?docId=WO2005056574
p1327
aVhttps://patentscope.wipo.int/search/en/detail.jsf?docId=WO2005055920
p1328
aVhttps://patentscope.wipo.int/search/en/detail.jsf?docId=WO2005056075
p1329
aVhttps://patentscope.wipo.int/search/en/detail.jsf?docId=WO2005055921
p1330
aVhttps://patentscope.wipo.int/search/en/detail.jsf?docId=WO2005057532
p1331
aVhttps://patentscope.wipo.int/search/en/detail.jsf?docId=WO2005073305
p1332
aVhttps://patentscope.wipo.int/search/en/detail.jsf?docId=WO2005056202
p1333
aVhttps://patentscope.wipo.int/search/en/detail.jsf?docId=WO2005057320
p1334
aVhttps://patentscope.wipo.int/search/en/detail.jsf?docId=WO2005058128
p1335
aVhttps://patentscope.wipo.int/search/en/detail.jsf?docId=WO2005060052
p1336
aVhttps://patentscope.wipo.int/search/en/detail.jsf?docId=WO2005058113
p1337
aVhttps://patentscope.wipo.int/search/en/detail.jsf?docId=WO2005059675
p1338
aVhttps://patentscope.wipo.int/search/en/detail.jsf?docId=WO2005065652
p1339
aVhttps://patentscope.wipo.int/search/en/detail.jsf?docId=WO2005060350
p1340
aVhttps://patentscope.wipo.int/search/en/detail.jsf?docId=WO2005065023
p1341
aVhttps://patentscope.wipo.int/search/en/detail.jsf?docId=WO2005060770
p1342
aVhttps://patentscope.wipo.int/search/en/detail.jsf?docId=WO2005060353
p1343
aVhttps://patentscope.wipo.int/search/en/detail.jsf?docId=WO2005062710
p1344
aVhttps://patentscope.wipo.int/search/en/detail.jsf?docId=WO2005062712
p1345
aVhttps://patentscope.wipo.int/search/en/detail.jsf?docId=WO2005062717
p1346
aVhttps://patentscope.wipo.int/search/en/detail.jsf?docId=WO2005065024
p1347
aVhttps://patentscope.wipo.int/search/en/detail.jsf?docId=WO2005067390
p1348
aVhttps://patentscope.wipo.int/search/en/detail.jsf?docId=WO2005072058
p1349
aVhttps://patentscope.wipo.int/search/en/detail.jsf?docId=WO2005072059
p1350
aVhttps://patentscope.wipo.int/search/en/detail.jsf?docId=WO2005074363
p1351
aVhttps://patentscope.wipo.int/search/en/detail.jsf?docId=WO2005074367
p1352
aVhttps://patentscope.wipo.int/search/en/detail.jsf?docId=WO2005074368
p1353
aVhttps://patentscope.wipo.int/search/en/detail.jsf?docId=WO2005074376
p1354
aVhttps://patentscope.wipo.int/search/en/detail.jsf?docId=WO2005076741
p1355
aVhttps://patentscope.wipo.int/search/en/detail.jsf?docId=WO2005079154
p1356
aVhttps://patentscope.wipo.int/search/en/detail.jsf?docId=WO2006067778
p1357
aVhttps://patentscope.wipo.int/search/en/detail.jsf?docId=WO2005081628
p1358
aVhttps://patentscope.wipo.int/search/en/detail.jsf?docId=WO2005089059
p1359
aVhttps://patentscope.wipo.int/search/en/detail.jsf?docId=WO2005081631
p1360
aVhttps://patentscope.wipo.int/search/en/detail.jsf?docId=WO2005081634
p1361
aVhttps://patentscope.wipo.int/search/en/detail.jsf?docId=WO2005084123
p1362
aVhttps://patentscope.wipo.int/search/en/detail.jsf?docId=WO2005081635
p1363
aVhttps://patentscope.wipo.int/search/en/detail.jsf?docId=WO2005086575
p1364
aVhttps://patentscope.wipo.int/search/en/detail.jsf?docId=WO2005084126
p1365
aVhttps://patentscope.wipo.int/search/en/detail.jsf?docId=WO2006092776
p1366
aVhttps://patentscope.wipo.int/search/en/detail.jsf?docId=WO2005084128
p1367
aVhttps://patentscope.wipo.int/search/en/detail.jsf?docId=WO2005084129
p1368
aVhttps://patentscope.wipo.int/search/en/detail.jsf?docId=WO2005084130
p1369
aVhttps://patentscope.wipo.int/search/en/detail.jsf?docId=WO2005084133
p1370
aVhttps://patentscope.wipo.int/search/en/detail.jsf?docId=WO2005084136
p1371
aVhttps://patentscope.wipo.int/search/en/detail.jsf?docId=WO2005086577
p1372
aVhttps://patentscope.wipo.int/search/en/detail.jsf?docId=WO2005084137
p1373
aVhttps://patentscope.wipo.int/search/en/detail.jsf?docId=WO2005084138
p1374
aVhttps://patentscope.wipo.int/search/en/detail.jsf?docId=WO2006027768
p1375
aVhttps://patentscope.wipo.int/search/en/detail.jsf?docId=WO2005086584
p1376
aVhttps://patentscope.wipo.int/search/en/detail.jsf?docId=WO2005086587
p1377
aVhttps://patentscope.wipo.int/search/en/detail.jsf?docId=WO2006097910
p1378
aVhttps://patentscope.wipo.int/search/en/detail.jsf?docId=WO2005105053
p1379
aVhttps://patentscope.wipo.int/search/en/detail.jsf?docId=WO2005089060
p1380
aVhttps://patentscope.wipo.int/search/en/detail.jsf?docId=WO2005086590
p1381
aVhttps://patentscope.wipo.int/search/en/detail.jsf?docId=WO2005086592
p1382
aVhttps://patentscope.wipo.int/search/en/detail.jsf?docId=WO2005089061
p1383
aVhttps://patentscope.wipo.int/search/en/detail.jsf?docId=WO2005094170
p1384
aVhttps://patentscope.wipo.int/search/en/detail.jsf?docId=WO2005089063
p1385
aVhttps://patentscope.wipo.int/search/en/detail.jsf?docId=WO2005089064
p1386
aVhttps://patentscope.wipo.int/search/en/detail.jsf?docId=WO2005091715
p1387
aVhttps://patentscope.wipo.int/search/en/detail.jsf?docId=WO2005091718
p1388
aVhttps://patentscope.wipo.int/search/en/detail.jsf?docId=WO2005091719
p1389
aVhttps://patentscope.wipo.int/search/en/detail.jsf?docId=WO2005094173
p1390
aVhttps://patentscope.wipo.int/search/en/detail.jsf?docId=WO2005119611
p1391
aVhttps://patentscope.wipo.int/search/en/detail.jsf?docId=WO2005094177
p1392
aVhttps://patentscope.wipo.int/search/en/detail.jsf?docId=WO2006106496
p1393
aVhttps://patentscope.wipo.int/search/en/detail.jsf?docId=WO2005094180
p1394
aVhttps://patentscope.wipo.int/search/en/detail.jsf?docId=WO2005094182
p1395
aVhttps://patentscope.wipo.int/search/en/detail.jsf?docId=WO2005103361
p1396
aVhttps://patentscope.wipo.int/search/en/detail.jsf?docId=WO2005096707
p1397
aVhttps://patentscope.wipo.int/search/en/detail.jsf?docId=WO2005100176
p1398
aVhttps://patentscope.wipo.int/search/en/detail.jsf?docId=WO2005099349
p1399
aVhttps://patentscope.wipo.int/search/en/detail.jsf?docId=WO2005104939
p1400
aVhttps://patentscope.wipo.int/search/en/detail.jsf?docId=WO2006109288
p1401
aVhttps://patentscope.wipo.int/search/en/detail.jsf?docId=WO2005101242
p1402
aVhttps://patentscope.wipo.int/search/en/detail.jsf?docId=WO2006072930
p1403
aVhttps://patentscope.wipo.int/search/en/detail.jsf?docId=WO2005099351
p1404
aVhttps://patentscope.wipo.int/search/en/detail.jsf?docId=WO2005107365
p1405
aVhttps://patentscope.wipo.int/search/en/detail.jsf?docId=WO2005101971
p1406
aVhttps://patentscope.wipo.int/search/en/detail.jsf?docId=WO2005101972
p1407
aVhttps://patentscope.wipo.int/search/en/detail.jsf?docId=WO2005107366
p1408
aVhttps://patentscope.wipo.int/search/en/detail.jsf?docId=WO2005101974
p1409
aVhttps://patentscope.wipo.int/search/en/detail.jsf?docId=WO2006030410
p1410
aVhttps://patentscope.wipo.int/search/en/detail.jsf?docId=WO2005101975
p1411
aVhttps://patentscope.wipo.int/search/en/detail.jsf?docId=WO2005101976
p1412
aVhttps://patentscope.wipo.int/search/en/detail.jsf?docId=WO2005101977
p1413
aVhttps://patentscope.wipo.int/search/en/detail.jsf?docId=WO2005101978
p1414
aVhttps://patentscope.wipo.int/search/en/detail.jsf?docId=WO2005102500
p1415
aVhttps://patentscope.wipo.int/search/en/detail.jsf?docId=WO2005101980
p1416
aVhttps://patentscope.wipo.int/search/en/detail.jsf?docId=WO2005102175
p1417
aVhttps://patentscope.wipo.int/search/en/detail.jsf?docId=WO2005104657
p1418
aVhttps://patentscope.wipo.int/search/en/detail.jsf?docId=WO2005107585
p1419
aVhttps://patentscope.wipo.int/search/en/detail.jsf?docId=WO2005104660
p1420
aVhttps://patentscope.wipo.int/search/en/detail.jsf?docId=WO2006027769
p1421
aVhttps://patentscope.wipo.int/search/en/detail.jsf?docId=WO2005108392
p1422
aVhttps://patentscope.wipo.int/search/en/detail.jsf?docId=WO2005108267
p1423
aVhttps://patentscope.wipo.int/search/en/detail.jsf?docId=WO2005109306
p1424
aVhttps://patentscope.wipo.int/search/en/detail.jsf?docId=WO2005107370
p1425
aVhttps://patentscope.wipo.int/search/en/detail.jsf?docId=WO2005107371
p1426
aVhttps://patentscope.wipo.int/search/en/detail.jsf?docId=WO2005120772
p1427
aVhttps://patentscope.wipo.int/search/en/detail.jsf?docId=WO2006123321
p1428
aVhttps://patentscope.wipo.int/search/en/detail.jsf?docId=WO2005115085
p1429
aVhttps://patentscope.wipo.int/search/en/detail.jsf?docId=WO2005115473
p1430
aVhttps://patentscope.wipo.int/search/en/detail.jsf?docId=WO2005115130
p1431
aVhttps://patentscope.wipo.int/search/en/detail.jsf?docId=WO2005115524
p1432
aVhttps://patentscope.wipo.int/search/en/detail.jsf?docId=WO2005115086
p1433
aVhttps://patentscope.wipo.int/search/en/detail.jsf?docId=WO2005117522
p1434
aVhttps://patentscope.wipo.int/search/en/detail.jsf?docId=WO2005115087
p1435
aVhttps://patentscope.wipo.int/search/en/detail.jsf?docId=WO2005119960
p1436
aVhttps://patentscope.wipo.int/search/en/detail.jsf?docId=WO2005118897
p1437
aVhttps://patentscope.wipo.int/search/en/detail.jsf?docId=WO2005118659
p1438
aVhttps://patentscope.wipo.int/search/en/detail.jsf?docId=WO2005122884
p1439
aVhttps://patentscope.wipo.int/search/en/detail.jsf?docId=WO2005122480
p1440
aVhttps://patentscope.wipo.int/search/en/detail.jsf?docId=WO2006001003
p1441
aVhttps://patentscope.wipo.int/search/en/detail.jsf?docId=WO2005121409
p1442
aVhttps://patentscope.wipo.int/search/en/detail.jsf?docId=WO2005120325
p1443
aVhttps://patentscope.wipo.int/search/en/detail.jsf?docId=WO2005120366
p1444
aVhttps://patentscope.wipo.int/search/en/detail.jsf?docId=WO2005121719
p1445
aVhttps://patentscope.wipo.int/search/en/detail.jsf?docId=WO2005122060
p1446
aVhttps://patentscope.wipo.int/search/en/detail.jsf?docId=WO2006011128
p1447
aVhttps://patentscope.wipo.int/search/en/detail.jsf?docId=WO2006006144
p1448
aVhttps://patentscope.wipo.int/search/en/detail.jsf?docId=WO2005123523
p1449
aVhttps://patentscope.wipo.int/search/en/detail.jsf?docId=WO2005124581
p1450
aVhttps://patentscope.wipo.int/search/en/detail.jsf?docId=WO2005124999
p1451
aVhttps://patentscope.wipo.int/search/en/detail.jsf?docId=WO2005124239
p1452
aVhttps://patentscope.wipo.int/search/en/detail.jsf?docId=WO2006001017
p1453
aVhttps://patentscope.wipo.int/search/en/detail.jsf?docId=WO2006092777
p1454
aVhttps://patentscope.wipo.int/search/en/detail.jsf?docId=WO2006018827
p1455
aVhttps://patentscope.wipo.int/search/en/detail.jsf?docId=WO2006001020
p1456
aVhttps://patentscope.wipo.int/search/en/detail.jsf?docId=WO2006003647
p1457
aVhttps://patentscope.wipo.int/search/en/detail.jsf?docId=WO2006001025
p1458
aVhttps://patentscope.wipo.int/search/en/detail.jsf?docId=WO2006003649
p1459
aVhttps://patentscope.wipo.int/search/en/detail.jsf?docId=WO2006003652
p1460
aVhttps://patentscope.wipo.int/search/en/detail.jsf?docId=WO2006003653
p1461
aVhttps://patentscope.wipo.int/search/en/detail.jsf?docId=WO2006006146
p1462
aVhttps://patentscope.wipo.int/search/en/detail.jsf?docId=WO2006006148
p1463
aVhttps://patentscope.wipo.int/search/en/detail.jsf?docId=WO2006006154
p1464
aVhttps://patentscope.wipo.int/search/en/detail.jsf?docId=WO2006006155
p1465
aVhttps://patentscope.wipo.int/search/en/detail.jsf?docId=WO2006003665
p1466
aVhttps://patentscope.wipo.int/search/en/detail.jsf?docId=WO2006006157
p1467
aVhttps://patentscope.wipo.int/search/en/detail.jsf?docId=WO2006006163
p1468
aVhttps://patentscope.wipo.int/search/en/detail.jsf?docId=WO2006006168
p1469
aVhttps://patentscope.wipo.int/search/en/detail.jsf?docId=WO2006011129
p1470
aVhttps://patentscope.wipo.int/search/en/detail.jsf?docId=WO2006006173
p1471
aVhttps://patentscope.wipo.int/search/en/detail.jsf?docId=WO2006018829
p1472
aVhttps://patentscope.wipo.int/search/en/detail.jsf?docId=WO2006011131
p1473
aVhttps://patentscope.wipo.int/search/en/detail.jsf?docId=WO2006011132
p1474
aVhttps://patentscope.wipo.int/search/en/detail.jsf?docId=WO2006008744
p1475
aVhttps://patentscope.wipo.int/search/en/detail.jsf?docId=WO2006008748
p1476
aVhttps://patentscope.wipo.int/search/en/detail.jsf?docId=WO2006011139
p1477
aVhttps://patentscope.wipo.int/search/en/detail.jsf?docId=WO2006061815
p1478
aVhttps://patentscope.wipo.int/search/en/detail.jsf?docId=WO2006027770
p1479
aVhttps://patentscope.wipo.int/search/en/detail.jsf?docId=WO2006011144
p1480
aVhttps://patentscope.wipo.int/search/en/detail.jsf?docId=WO2006061816
p1481
aVhttps://patentscope.wipo.int/search/en/detail.jsf?docId=WO2006013560
p1482
aVhttps://patentscope.wipo.int/search/en/detail.jsf?docId=WO2006027771
p1483
aVhttps://patentscope.wipo.int/search/en/detail.jsf?docId=WO2006013569
p1484
aVhttps://patentscope.wipo.int/search/en/detail.jsf?docId=WO2006013575
p1485
aVhttps://patentscope.wipo.int/search/en/detail.jsf?docId=WO2006013576
p1486
aVhttps://patentscope.wipo.int/search/en/detail.jsf?docId=WO2006016367
p1487
aVhttps://patentscope.wipo.int/search/en/detail.jsf?docId=WO2006018836
p1488
aVhttps://patentscope.wipo.int/search/en/detail.jsf?docId=WO2007020620
p1489
aVhttps://patentscope.wipo.int/search/en/detail.jsf?docId=WO2006137055
p1490
aVhttps://patentscope.wipo.int/search/en/detail.jsf?docId=WO2006137061
p1491
aVhttps://patentscope.wipo.int/search/en/detail.jsf?docId=WO2006137076
p1492
aVhttps://patentscope.wipo.int/search/en/detail.jsf?docId=WO2007007315
p1493
aVhttps://patentscope.wipo.int/search/en/detail.jsf?docId=WO2007004226
p1494
aVhttps://patentscope.wipo.int/search/en/detail.jsf?docId=WO2007010524
p1495
aVhttps://patentscope.wipo.int/search/en/detail.jsf?docId=WO2007031984
p1496
aVhttps://patentscope.wipo.int/search/en/detail.jsf?docId=WO2007010537
p1497
aVhttps://patentscope.wipo.int/search/en/detail.jsf?docId=WO2007013061
p1498
aVhttps://patentscope.wipo.int/search/en/detail.jsf?docId=WO2007023483
p1499
aVhttps://patentscope.wipo.int/search/en/detail.jsf?docId=WO2007015253
p1500
aVhttps://patentscope.wipo.int/search/en/detail.jsf?docId=WO2007015254
p1501
aVhttps://patentscope.wipo.int/search/en/detail.jsf?docId=WO2007026344
p1502
aVhttps://patentscope.wipo.int/search/en/detail.jsf?docId=WO2007023500
p1503
aVhttps://patentscope.wipo.int/search/en/detail.jsf?docId=WO2007031990
p1504
aVhttps://patentscope.wipo.int/search/en/detail.jsf?docId=WO2007029260
p1505
aVhttps://patentscope.wipo.int/search/en/detail.jsf?docId=WO2007029261
p1506
aVhttps://patentscope.wipo.int/search/en/detail.jsf?docId=WO2007031997
p1507
aVhttps://patentscope.wipo.int/search/en/detail.jsf?docId=WO2008032303
p1508
aVhttps://patentscope.wipo.int/search/en/detail.jsf?docId=WO2007032014
p1509
aVhttps://patentscope.wipo.int/search/en/detail.jsf?docId=WO2007034478
p1510
aVhttps://patentscope.wipo.int/search/en/detail.jsf?docId=WO2007034484
p1511
aVhttps://patentscope.wipo.int/search/en/detail.jsf?docId=WO2007034486
p1512
aVhttps://patentscope.wipo.int/search/en/detail.jsf?docId=WO2007034497
p1513
aVhttps://patentscope.wipo.int/search/en/detail.jsf?docId=WO2007052268
p1514
aVhttps://patentscope.wipo.int/search/en/detail.jsf?docId=WO2007052272
p1515
aVhttps://patentscope.wipo.int/search/en/detail.jsf?docId=WO2007054945
p1516
aVhttps://patentscope.wipo.int/search/en/detail.jsf?docId=WO2007057899
p1517
aVhttps://patentscope.wipo.int/search/en/detail.jsf?docId=WO2007083296
p1518
aVhttps://patentscope.wipo.int/search/en/detail.jsf?docId=WO2007102160
p1519
aVhttps://patentscope.wipo.int/search/en/detail.jsf?docId=WO2007107978
p1520
aVhttps://patentscope.wipo.int/search/en/detail.jsf?docId=WO2007113805
p1521
aVhttps://patentscope.wipo.int/search/en/detail.jsf?docId=WO2008010224
p1522
aVhttps://patentscope.wipo.int/search/en/detail.jsf?docId=WO2008041227
p1523
aVhttps://patentscope.wipo.int/search/en/detail.jsf?docId=WO2008038282
p1524
aVhttps://patentscope.wipo.int/search/en/detail.jsf?docId=WO2008041233
p1525
aVhttps://patentscope.wipo.int/search/en/detail.jsf?docId=WO2008146295
p1526
aVhttps://patentscope.wipo.int/search/en/detail.jsf?docId=WO2009001340
p1527
aVhttps://patentscope.wipo.int/search/en/detail.jsf?docId=WO2010106533
p1528
aVhttps://patentscope.wipo.int/search/en/detail.jsf?docId=WO2010100645
p1529
aVhttps://patentscope.wipo.int/search/en/detail.jsf?docId=WO199705501
p1530
aVhttps://patentscope.wipo.int/search/en/detail.jsf?docId=WO2001065757
p1531
aVhttps://patentscope.wipo.int/search/en/detail.jsf?docId=WO2003018547
p1532
aVhttps://patentscope.wipo.int/search/en/detail.jsf?docId=WO2003020550
p1533
aVhttps://patentscope.wipo.int/search/en/detail.jsf?docId=WO2003027267
p1534
aVhttps://patentscope.wipo.int/search/en/detail.jsf?docId=WO2003030428
p1535
aVhttps://patentscope.wipo.int/search/en/detail.jsf?docId=WO2002033506
p1536
aVhttps://patentscope.wipo.int/search/en/detail.jsf?docId=WO2002033507
p1537
aVhttps://patentscope.wipo.int/search/en/detail.jsf?docId=WO2002033508
p1538
aVhttps://patentscope.wipo.int/search/en/detail.jsf?docId=WO2002035309
p1539
aVhttps://patentscope.wipo.int/search/en/detail.jsf?docId=WO2003030635
p1540
aVhttps://patentscope.wipo.int/search/en/detail.jsf?docId=WO2002043248
p1541
aVhttps://patentscope.wipo.int/search/en/detail.jsf?docId=WO2002043653
p1542
aVhttps://patentscope.wipo.int/search/en/detail.jsf?docId=WO2002049573
p1543
aVhttps://patentscope.wipo.int/search/en/detail.jsf?docId=WO2003052498
p1544
aVhttps://patentscope.wipo.int/search/en/detail.jsf?docId=WO2003060543
p1545
aVhttps://patentscope.wipo.int/search/en/detail.jsf?docId=WO2003069075
p1546
aVhttps://patentscope.wipo.int/search/en/detail.jsf?docId=WO2003070683
p1547
aVhttps://patentscope.wipo.int/search/en/detail.jsf?docId=WO2003074063
p1548
aVhttps://patentscope.wipo.int/search/en/detail.jsf?docId=WO2002074235
p1549
aVhttps://patentscope.wipo.int/search/en/detail.jsf?docId=WO2003077122
p1550
aVhttps://patentscope.wipo.int/search/en/detail.jsf?docId=WO2002073658
p1551
aVhttps://patentscope.wipo.int/search/en/detail.jsf?docId=WO2002094179
p1552
aVhttps://patentscope.wipo.int/search/en/detail.jsf?docId=WO2003026555
p1553
aVhttps://patentscope.wipo.int/search/en/detail.jsf?docId=WO2003101431
p1554
aVhttps://patentscope.wipo.int/search/en/detail.jsf?docId=WO2004000302
p1555
aVhttps://patentscope.wipo.int/search/en/detail.jsf?docId=WO2004011578
p1556
aVhttps://patentscope.wipo.int/search/en/detail.jsf?docId=WO2004012028
p1557
aVhttps://patentscope.wipo.int/search/en/detail.jsf?docId=WO2004018409
p1558
aVhttps://patentscope.wipo.int/search/en/detail.jsf?docId=WO2004021975
p1559
aVhttps://patentscope.wipo.int/search/en/detail.jsf?docId=WO2004035585
p1560
aVhttps://patentscope.wipo.int/search/en/detail.jsf?docId=WO2003032896
p1561
aVhttps://patentscope.wipo.int/search/en/detail.jsf?docId=WO2004060267
p1562
aVhttps://patentscope.wipo.int/search/en/detail.jsf?docId=WO2003075829
p1563
aVhttps://patentscope.wipo.int/search/en/detail.jsf?docId=WO2004087932
p1564
aVhttps://patentscope.wipo.int/search/en/detail.jsf?docId=WO2004102408
p1565
aVhttps://patentscope.wipo.int/search/en/detail.jsf?docId=WO2005030738
p1566
aVhttps://patentscope.wipo.int/search/en/detail.jsf?docId=WO2004087982
p1567
aVhttps://patentscope.wipo.int/search/en/detail.jsf?docId=WO2005085218
p1568
aVhttps://patentscope.wipo.int/search/en/detail.jsf?docId=WO2004086774
p1569
aVhttps://patentscope.wipo.int/search/en/detail.jsf?docId=WO2004109425
p1570
aVhttps://patentscope.wipo.int/search/en/detail.jsf?docId=WO2005120517
p1571
aVhttps://patentscope.wipo.int/search/en/detail.jsf?docId=WO2005009822
p1572
aVhttps://patentscope.wipo.int/search/en/detail.jsf?docId=WO2005069741
p1573
aVhttps://patentscope.wipo.int/search/en/detail.jsf?docId=WO2005099354
p1574
aVhttps://patentscope.wipo.int/search/en/detail.jsf?docId=WO2006038217
p1575
aVhttps://patentscope.wipo.int/search/en/detail.jsf?docId=WO2006051553
p1576
aVhttps://patentscope.wipo.int/search/en/detail.jsf?docId=WO2006077602
p1577
aVhttps://patentscope.wipo.int/search/en/detail.jsf?docId=WO2006082592
p1578
aVhttps://patentscope.wipo.int/search/en/detail.jsf?docId=WO2005076748
p1579
aVhttps://patentscope.wipo.int/search/en/detail.jsf?docId=WO2005077928
p1580
aVhttps://patentscope.wipo.int/search/en/detail.jsf?docId=WO2005076749
p1581
aVhttps://patentscope.wipo.int/search/en/detail.jsf?docId=WO2006090403
p1582
aVhttps://patentscope.wipo.int/search/en/detail.jsf?docId=WO2005081638
p1583
aVhttps://patentscope.wipo.int/search/en/detail.jsf?docId=WO2006095356
p1584
aVhttps://patentscope.wipo.int/search/en/detail.jsf?docId=WO2006097938
p1585
aVhttps://patentscope.wipo.int/search/en/detail.jsf?docId=WO2006131934
p1586
aVhttps://patentscope.wipo.int/search/en/detail.jsf?docId=WO2006134613
p1587
aVhttps://patentscope.wipo.int/search/en/detail.jsf?docId=WO2007004236
p1588
aVhttps://patentscope.wipo.int/search/en/detail.jsf?docId=WO2007032021
p1589
aVhttps://patentscope.wipo.int/search/en/detail.jsf?docId=WO2007052292
p1590
aVhttps://patentscope.wipo.int/search/en/detail.jsf?docId=WO2008010235
p1591
aVhttps://patentscope.wipo.int/search/en/detail.jsf?docId=WO2003015096
p1592
aVhttps://patentscope.wipo.int/search/en/detail.jsf?docId=WO2002045945
p1593
aVhttps://patentscope.wipo.int/search/en/detail.jsf?docId=WO2002062485
p1594
aVhttps://patentscope.wipo.int/search/en/detail.jsf?docId=WO2002076378
p1595
aVhttps://patentscope.wipo.int/search/en/detail.jsf?docId=WO2002075007
p1596
aVhttps://patentscope.wipo.int/search/en/detail.jsf?docId=WO2003022378
p1597
aVhttps://patentscope.wipo.int/search/en/detail.jsf?docId=WO2004102300
p1598
aVhttps://patentscope.wipo.int/search/en/detail.jsf?docId=WO2004100864
p1599
aVhttps://patentscope.wipo.int/search/en/detail.jsf?docId=WO2005076763
p1600
aVhttps://patentscope.wipo.int/search/en/detail.jsf?docId=WO2006019288
p1601
aVhttps://patentscope.wipo.int/search/en/detail.jsf?docId=WO2006016796
p1602
aVhttps://patentscope.wipo.int/search/en/detail.jsf?docId=WO199618722
p1603
aVhttps://patentscope.wipo.int/search/en/detail.jsf?docId=WO2002030261
p1604
aVhttps://patentscope.wipo.int/search/en/detail.jsf?docId=WO2003013962
p1605
aVhttps://patentscope.wipo.int/search/en/detail.jsf?docId=WO2003015879
p1606
aVhttps://patentscope.wipo.int/search/en/detail.jsf?docId=WO2005109396
p1607
aVhttps://patentscope.wipo.int/search/en/detail.jsf?docId=WO2015174857
p1608
aVhttps://patentscope.wipo.int/search/en/detail.jsf?docId=WO2002042859
p1609
aVhttps://patentscope.wipo.int/search/en/detail.jsf?docId=WO2004002486
p1610
aVhttps://patentscope.wipo.int/search/en/detail.jsf?docId=WO2003043461
p1611
aVhttps://patentscope.wipo.int/search/en/detail.jsf?docId=WO200143944
p1612
aVhttps://patentscope.wipo.int/search/en/detail.jsf?docId=WO200135539
p1613
aVhttps://patentscope.wipo.int/search/en/detail.jsf?docId=WO200145258
p1614
aVhttps://patentscope.wipo.int/search/en/detail.jsf?docId=WO200143431
p1615
aVhttps://patentscope.wipo.int/search/en/detail.jsf?docId=WO200159975
p1616
aVhttps://patentscope.wipo.int/search/en/detail.jsf?docId=WO200161069
p1617
aVhttps://patentscope.wipo.int/search/en/detail.jsf?docId=WO200167339
p1618
aVhttps://patentscope.wipo.int/search/en/detail.jsf?docId=WO2002017355
p1619
aVhttps://patentscope.wipo.int/search/en/detail.jsf?docId=WO2002005067
p1620
aVhttps://patentscope.wipo.int/search/en/detail.jsf?docId=WO2002039538
p1621
aVhttps://patentscope.wipo.int/search/en/detail.jsf?docId=WO2002064515
p1622
aVhttps://patentscope.wipo.int/search/en/detail.jsf?docId=WO2002043054
p1623
aVhttps://patentscope.wipo.int/search/en/detail.jsf?docId=WO2002039965
p1624
aVhttps://patentscope.wipo.int/search/en/detail.jsf?docId=WO2002046344
p1625
aVhttps://patentscope.wipo.int/search/en/detail.jsf?docId=WO2002041814
p1626
aVhttps://patentscope.wipo.int/search/en/detail.jsf?docId=WO2002058371
p1627
aVhttps://patentscope.wipo.int/search/en/detail.jsf?docId=WO2002048824
p1628
aVhttps://patentscope.wipo.int/search/en/detail.jsf?docId=WO2002043535
p1629
aVhttps://patentscope.wipo.int/search/en/detail.jsf?docId=WO2002041506
p1630
aVhttps://patentscope.wipo.int/search/en/detail.jsf?docId=WO2002042873
p1631
aVhttps://patentscope.wipo.int/search/en/detail.jsf?docId=WO2002042460
p1632
aVhttps://patentscope.wipo.int/search/en/detail.jsf?docId=WO2002040883
p1633
aVhttps://patentscope.wipo.int/search/en/detail.jsf?docId=WO2002042980
p1634
aVhttps://patentscope.wipo.int/search/en/detail.jsf?docId=WO2002052296
p1635
aVhttps://patentscope.wipo.int/search/en/detail.jsf?docId=WO2002055017
p1636
aVhttps://patentscope.wipo.int/search/en/detail.jsf?docId=WO2002040506
p1637
aVhttps://patentscope.wipo.int/search/en/detail.jsf?docId=WO2002038001
p1638
aVhttps://patentscope.wipo.int/search/en/detail.jsf?docId=WO2002037199
p1639
aVhttps://patentscope.wipo.int/search/en/detail.jsf?docId=WO2002042196
p1640
aVhttps://patentscope.wipo.int/search/en/detail.jsf?docId=WO2002050133
p1641
aVhttps://patentscope.wipo.int/search/en/detail.jsf?docId=WO2002045214
p1642
aVhttps://patentscope.wipo.int/search/en/detail.jsf?docId=WO2002058752
p1643
aVhttps://patentscope.wipo.int/search/en/detail.jsf?docId=WO2002045071
p1644
aVhttps://patentscope.wipo.int/search/en/detail.jsf?docId=WO2002049944
p1645
aVhttps://patentscope.wipo.int/search/en/detail.jsf?docId=WO2002036842
p1646
aVhttps://patentscope.wipo.int/search/en/detail.jsf?docId=WO2002044335
p1647
aVhttps://patentscope.wipo.int/search/en/detail.jsf?docId=WO2002041891
p1648
aVhttps://patentscope.wipo.int/search/en/detail.jsf?docId=WO2002045924
p1649
aVhttps://patentscope.wipo.int/search/en/detail.jsf?docId=WO2002059052
p1650
aVhttps://patentscope.wipo.int/search/en/detail.jsf?docId=WO2003056234
p1651
aVhttps://patentscope.wipo.int/search/en/detail.jsf?docId=WO2002056826
p1652
aVhttps://patentscope.wipo.int/search/en/detail.jsf?docId=WO2003044600
p1653
aVhttps://patentscope.wipo.int/search/en/detail.jsf?docId=WO2002044210
p1654
aVhttps://patentscope.wipo.int/search/en/detail.jsf?docId=WO2002041023
p1655
aVhttps://patentscope.wipo.int/search/en/detail.jsf?docId=WO2002036972
p1656
aVhttps://patentscope.wipo.int/search/en/detail.jsf?docId=WO2002039792
p1657
aVhttps://patentscope.wipo.int/search/en/detail.jsf?docId=WO2002041557
p1658
aVhttps://patentscope.wipo.int/search/en/detail.jsf?docId=WO2002038572
p1659
aVhttps://patentscope.wipo.int/search/en/detail.jsf?docId=WO2002038204
p1660
aVhttps://patentscope.wipo.int/search/en/detail.jsf?docId=WO2003037669
p1661
aVhttps://patentscope.wipo.int/search/en/detail.jsf?docId=WO2002039276
p1662
aVhttps://patentscope.wipo.int/search/en/detail.jsf?docId=WO2002037552
p1663
aVhttps://patentscope.wipo.int/search/en/detail.jsf?docId=WO2002036073
p1664
aVhttps://patentscope.wipo.int/search/en/detail.jsf?docId=WO2002066044
p1665
aVhttps://patentscope.wipo.int/search/en/detail.jsf?docId=WO2002038730
p1666
aVhttps://patentscope.wipo.int/search/en/detail.jsf?docId=WO2002045857
p1667
aVhttps://patentscope.wipo.int/search/en/detail.jsf?docId=WO2002039006
p1668
aVhttps://patentscope.wipo.int/search/en/detail.jsf?docId=WO2002048340
p1669
aVhttps://patentscope.wipo.int/search/en/detail.jsf?docId=WO2002037957
p1670
aVhttps://patentscope.wipo.int/search/en/detail.jsf?docId=WO2002042843
p1671
aVhttps://patentscope.wipo.int/search/en/detail.jsf?docId=WO2002047146
p1672
aVhttps://patentscope.wipo.int/search/en/detail.jsf?docId=WO2002047979
p1673
aVhttps://patentscope.wipo.int/search/en/detail.jsf?docId=WO2002046694
p1674
aVhttps://patentscope.wipo.int/search/en/detail.jsf?docId=WO2002039610
p1675
aVhttps://patentscope.wipo.int/search/en/detail.jsf?docId=WO2002036438
p1676
aVhttps://patentscope.wipo.int/search/en/detail.jsf?docId=WO2002042881
p1677
aVhttps://patentscope.wipo.int/search/en/detail.jsf?docId=WO2002046414
p1678
aVhttps://patentscope.wipo.int/search/en/detail.jsf?docId=WO2002041762
p1679
aVhttps://patentscope.wipo.int/search/en/detail.jsf?docId=WO2002038462
p1680
aVhttps://patentscope.wipo.int/search/en/detail.jsf?docId=WO2003019985
p1681
aVhttps://patentscope.wipo.int/search/en/detail.jsf?docId=WO2002040077
p1682
aVhttps://patentscope.wipo.int/search/en/detail.jsf?docId=WO2002048088
p1683
aVhttps://patentscope.wipo.int/search/en/detail.jsf?docId=WO2002048272
p1684
aVhttps://patentscope.wipo.int/search/en/detail.jsf?docId=WO2002048200
p1685
aVhttps://patentscope.wipo.int/search/en/detail.jsf?docId=WO2002054784
p1686
aVhttps://patentscope.wipo.int/search/en/detail.jsf?docId=WO2002039720
p1687
aVhttps://patentscope.wipo.int/search/en/detail.jsf?docId=WO2002051600
p1688
aVhttps://patentscope.wipo.int/search/en/detail.jsf?docId=WO2002061460
p1689
aVhttps://patentscope.wipo.int/search/en/detail.jsf?docId=WO2002070706
p1690
aVhttps://patentscope.wipo.int/search/en/detail.jsf?docId=WO2002045980
p1691
aVhttps://patentscope.wipo.int/search/en/detail.jsf?docId=WO2002052126
p1692
aVhttps://patentscope.wipo.int/search/en/detail.jsf?docId=WO2002049054
p1693
aVhttps://patentscope.wipo.int/search/en/detail.jsf?docId=WO2002054583
p1694
aVhttps://patentscope.wipo.int/search/en/detail.jsf?docId=WO2002047846
p1695
aVhttps://patentscope.wipo.int/search/en/detail.jsf?docId=WO2002036427
p1696
aVhttps://patentscope.wipo.int/search/en/detail.jsf?docId=WO2002104020
p1697
aVhttps://patentscope.wipo.int/search/en/detail.jsf?docId=WO2002048458
p1698
aVhttps://patentscope.wipo.int/search/en/detail.jsf?docId=WO2002067077
p1699
aVhttps://patentscope.wipo.int/search/en/detail.jsf?docId=WO2002066643
p1700
aVhttps://patentscope.wipo.int/search/en/detail.jsf?docId=WO2002050569
p1701
aVhttps://patentscope.wipo.int/search/en/detail.jsf?docId=WO2002050893
p1702
aVhttps://patentscope.wipo.int/search/en/detail.jsf?docId=WO2002054839
p1703
aVhttps://patentscope.wipo.int/search/en/detail.jsf?docId=WO2002068284
p1704
aVhttps://patentscope.wipo.int/search/en/detail.jsf?docId=WO2002051340
p1705
aVhttps://patentscope.wipo.int/search/en/detail.jsf?docId=WO2002049853
p1706
aVhttps://patentscope.wipo.int/search/en/detail.jsf?docId=WO2002052086
p1707
aVhttps://patentscope.wipo.int/search/en/detail.jsf?docId=WO2002047162
p1708
aVhttps://patentscope.wipo.int/search/en/detail.jsf?docId=WO2003044840
p1709
aVhttps://patentscope.wipo.int/search/en/detail.jsf?docId=WO2002053518
p1710
aVhttps://patentscope.wipo.int/search/en/detail.jsf?docId=WO2002035344
p1711
aVhttps://patentscope.wipo.int/search/en/detail.jsf?docId=WO2002059041
p1712
aVhttps://patentscope.wipo.int/search/en/detail.jsf?docId=WO2002059965
p1713
aVhttps://patentscope.wipo.int/search/en/detail.jsf?docId=WO2002068197
p1714
aVhttps://patentscope.wipo.int/search/en/detail.jsf?docId=WO2002054319
p1715
aVhttps://patentscope.wipo.int/search/en/detail.jsf?docId=WO2002034238
p1716
aVhttps://patentscope.wipo.int/search/en/detail.jsf?docId=WO2002059602
p1717
aVhttps://patentscope.wipo.int/search/en/detail.jsf?docId=WO2002049629
p1718
aVhttps://patentscope.wipo.int/search/en/detail.jsf?docId=WO2003034972
p1719
aVhttps://patentscope.wipo.int/search/en/detail.jsf?docId=WO2003037141
p1720
aVhttps://patentscope.wipo.int/search/en/detail.jsf?docId=WO2002037534
p1721
aVhttps://patentscope.wipo.int/search/en/detail.jsf?docId=WO2002044800
p1722
aVhttps://patentscope.wipo.int/search/en/detail.jsf?docId=WO2002057742
p1723
aVhttps://patentscope.wipo.int/search/en/detail.jsf?docId=WO2002060131
p1724
aVhttps://patentscope.wipo.int/search/en/detail.jsf?docId=WO2002042091
p1725
aVhttps://patentscope.wipo.int/search/en/detail.jsf?docId=WO2002053445
p1726
aVhttps://patentscope.wipo.int/search/en/detail.jsf?docId=WO2002054584
p1727
aVhttps://patentscope.wipo.int/search/en/detail.jsf?docId=WO2002063112
p1728
aVhttps://patentscope.wipo.int/search/en/detail.jsf?docId=WO2002058232
p1729
aVhttps://patentscope.wipo.int/search/en/detail.jsf?docId=WO2002056792
p1730
aVhttps://patentscope.wipo.int/search/en/detail.jsf?docId=WO2002054102
p1731
aVhttps://patentscope.wipo.int/search/en/detail.jsf?docId=WO2002072064
p1732
aVhttps://patentscope.wipo.int/search/en/detail.jsf?docId=WO2002053290
p1733
aVhttps://patentscope.wipo.int/search/en/detail.jsf?docId=WO2002059406
p1734
aVhttps://patentscope.wipo.int/search/en/detail.jsf?docId=WO2002058047
p1735
aVhttps://patentscope.wipo.int/search/en/detail.jsf?docId=WO2002063306
p1736
aVhttps://patentscope.wipo.int/search/en/detail.jsf?docId=WO2002060399
p1737
aVhttps://patentscope.wipo.int/search/en/detail.jsf?docId=WO2002055738
p1738
aVhttps://patentscope.wipo.int/search/en/detail.jsf?docId=WO2002066714
p1739
aVhttps://patentscope.wipo.int/search/en/detail.jsf?docId=WO2002056912
p1740
aVhttps://patentscope.wipo.int/search/en/detail.jsf?docId=WO2002058835
p1741
aVhttps://patentscope.wipo.int/search/en/detail.jsf?docId=WO2002057239
p1742
aVhttps://patentscope.wipo.int/search/en/detail.jsf?docId=WO2002078709
p1743
aVhttps://patentscope.wipo.int/search/en/detail.jsf?docId=WO2002057720
p1744
aVhttps://patentscope.wipo.int/search/en/detail.jsf?docId=WO2002057808
p1745
aVhttps://patentscope.wipo.int/search/en/detail.jsf?docId=WO2002061764
p1746
aVhttps://patentscope.wipo.int/search/en/detail.jsf?docId=WO2002064709
p1747
aVhttps://patentscope.wipo.int/search/en/detail.jsf?docId=WO2002059130
p1748
aVhttps://patentscope.wipo.int/search/en/detail.jsf?docId=WO2002060015
p1749
aVhttps://patentscope.wipo.int/search/en/detail.jsf?docId=WO2002058702
p1750
aVhttps://patentscope.wipo.int/search/en/detail.jsf?docId=WO2002060754
p1751
aVhttps://patentscope.wipo.int/search/en/detail.jsf?docId=WO2002066875
p1752
aVhttps://patentscope.wipo.int/search/en/detail.jsf?docId=WO2003064844
p1753
aVhttps://patentscope.wipo.int/search/en/detail.jsf?docId=WO2002062074
p1754
aVhttps://patentscope.wipo.int/search/en/detail.jsf?docId=WO2002089681
p1755
aVhttps://patentscope.wipo.int/search/en/detail.jsf?docId=WO2002069294
p1756
aVhttps://patentscope.wipo.int/search/en/detail.jsf?docId=WO2002077090
p1757
aVhttps://patentscope.wipo.int/search/en/detail.jsf?docId=WO2002060501
p1758
aVhttps://patentscope.wipo.int/search/en/detail.jsf?docId=WO2003052706
p1759
aVhttps://patentscope.wipo.int/search/en/detail.jsf?docId=WO2002069573
p1760
aVhttps://patentscope.wipo.int/search/en/detail.jsf?docId=WO2002062786
p1761
aVhttps://patentscope.wipo.int/search/en/detail.jsf?docId=WO2002065798
p1762
aVhttps://patentscope.wipo.int/search/en/detail.jsf?docId=WO2002060704
p1763
aVhttps://patentscope.wipo.int/search/en/detail.jsf?docId=WO2002063654
p1764
aVhttps://patentscope.wipo.int/search/en/detail.jsf?docId=WO2002068253
p1765
aVhttps://patentscope.wipo.int/search/en/detail.jsf?docId=WO2002072946
p1766
aVhttps://patentscope.wipo.int/search/en/detail.jsf?docId=WO2002063374
p1767
aVhttps://patentscope.wipo.int/search/en/detail.jsf?docId=WO2002072614
p1768
aVhttps://patentscope.wipo.int/search/en/detail.jsf?docId=WO2002064859
p1769
aVhttps://patentscope.wipo.int/search/en/detail.jsf?docId=WO2002083233
p1770
aVhttps://patentscope.wipo.int/search/en/detail.jsf?docId=WO2003017978
p1771
aVhttps://patentscope.wipo.int/search/en/detail.jsf?docId=WO2002068326
p1772
aVhttps://patentscope.wipo.int/search/en/detail.jsf?docId=WO2002065398
p1773
aVhttps://patentscope.wipo.int/search/en/detail.jsf?docId=WO2002071502
p1774
aVhttps://patentscope.wipo.int/search/en/detail.jsf?docId=WO2002089212
p1775
aVhttps://patentscope.wipo.int/search/en/detail.jsf?docId=WO2002067031
p1776
aVhttps://patentscope.wipo.int/search/en/detail.jsf?docId=WO2002068672
p1777
aVhttps://patentscope.wipo.int/search/en/detail.jsf?docId=WO2002073407
p1778
aVhttps://patentscope.wipo.int/search/en/detail.jsf?docId=WO2002096957
p1779
aVhttps://patentscope.wipo.int/search/en/detail.jsf?docId=WO2002078306
p1780
aVhttps://patentscope.wipo.int/search/en/detail.jsf?docId=WO2002068346
p1781
aVhttps://patentscope.wipo.int/search/en/detail.jsf?docId=WO2002071859
p1782
aVhttps://patentscope.wipo.int/search/en/detail.jsf?docId=WO2002056943
p1783
aVhttps://patentscope.wipo.int/search/en/detail.jsf?docId=WO2002071033
p1784
aVhttps://patentscope.wipo.int/search/en/detail.jsf?docId=WO2002070750
p1785
aVhttps://patentscope.wipo.int/search/en/detail.jsf?docId=WO2002076889
p1786
aVhttps://patentscope.wipo.int/search/en/detail.jsf?docId=WO2002071438
p1787
aVhttps://patentscope.wipo.int/search/en/detail.jsf?docId=WO2003008997
p1788
aVhttps://patentscope.wipo.int/search/en/detail.jsf?docId=WO2003005060
p1789
aVhttps://patentscope.wipo.int/search/en/detail.jsf?docId=WO2002095479
p1790
aVhttps://patentscope.wipo.int/search/en/detail.jsf?docId=WO2002068209
p1791
aVhttps://patentscope.wipo.int/search/en/detail.jsf?docId=WO2002068303
p1792
aVhttps://patentscope.wipo.int/search/en/detail.jsf?docId=WO2002067758
p1793
aVhttps://patentscope.wipo.int/search/en/detail.jsf?docId=WO2002067925
p1794
aVhttps://patentscope.wipo.int/search/en/detail.jsf?docId=WO2002069012
p1795
aVhttps://patentscope.wipo.int/search/en/detail.jsf?docId=WO2002069278
p1796
aVhttps://patentscope.wipo.int/search/en/detail.jsf?docId=WO2002068653
p1797
aVhttps://patentscope.wipo.int/search/en/detail.jsf?docId=WO2002068605
p1798
aVhttps://patentscope.wipo.int/search/en/detail.jsf?docId=WO2002076065
p1799
aVhttps://patentscope.wipo.int/search/en/detail.jsf?docId=WO2002079965
p1800
aVhttps://patentscope.wipo.int/search/en/detail.jsf?docId=WO2002088687
p1801
aVhttps://patentscope.wipo.int/search/en/detail.jsf?docId=WO2002069902
p1802
aVhttps://patentscope.wipo.int/search/en/detail.jsf?docId=WO2002070008
p1803
aVhttps://patentscope.wipo.int/search/en/detail.jsf?docId=WO2002075569
p1804
aVhttps://patentscope.wipo.int/search/en/detail.jsf?docId=WO2002074403
p1805
aVhttps://patentscope.wipo.int/search/en/detail.jsf?docId=WO2002073759
p1806
aVhttps://patentscope.wipo.int/search/en/detail.jsf?docId=WO2002093095
p1807
aVhttps://patentscope.wipo.int/search/en/detail.jsf?docId=WO2002073667
p1808
aVhttps://patentscope.wipo.int/search/en/detail.jsf?docId=WO2002072378
p1809
aVhttps://patentscope.wipo.int/search/en/detail.jsf?docId=WO2002081054
p1810
aVhttps://patentscope.wipo.int/search/en/detail.jsf?docId=WO2002073188
p1811
aVhttps://patentscope.wipo.int/search/en/detail.jsf?docId=WO2002080374
p1812
aVhttps://patentscope.wipo.int/search/en/detail.jsf?docId=WO2002073840
p1813
aVhttps://patentscope.wipo.int/search/en/detail.jsf?docId=WO2003004576
p1814
aVhttps://patentscope.wipo.int/search/en/detail.jsf?docId=WO2002079702
p1815
aVhttps://patentscope.wipo.int/search/en/detail.jsf?docId=WO2002076929
p1816
aVhttps://patentscope.wipo.int/search/en/detail.jsf?docId=WO2002075339
p1817
aVhttps://patentscope.wipo.int/search/en/detail.jsf?docId=WO2002077143
p1818
aVhttps://patentscope.wipo.int/search/en/detail.jsf?docId=WO2002074385
p1819
aVhttps://patentscope.wipo.int/search/en/detail.jsf?docId=WO2002075106
p1820
aVhttps://patentscope.wipo.int/search/en/detail.jsf?docId=WO2002076502
p1821
aVhttps://patentscope.wipo.int/search/en/detail.jsf?docId=WO2002077173
p1822
aVhttps://patentscope.wipo.int/search/en/detail.jsf?docId=WO2002076022
p1823
aVhttps://patentscope.wipo.int/search/en/detail.jsf?docId=WO2002089719
p1824
aVhttps://patentscope.wipo.int/search/en/detail.jsf?docId=WO2002079148
p1825
aVhttps://patentscope.wipo.int/search/en/detail.jsf?docId=WO2002077189
p1826
aVhttps://patentscope.wipo.int/search/en/detail.jsf?docId=WO2004016638
p1827
aVhttps://patentscope.wipo.int/search/en/detail.jsf?docId=WO2002081618
p1828
aVhttps://patentscope.wipo.int/search/en/detail.jsf?docId=WO2002085222
p1829
aVhttps://patentscope.wipo.int/search/en/detail.jsf?docId=WO2002088863
p1830
aVhttps://patentscope.wipo.int/search/en/detail.jsf?docId=WO2002081233
p1831
aVhttps://patentscope.wipo.int/search/en/detail.jsf?docId=WO2002084531
p1832
aVhttps://patentscope.wipo.int/search/en/detail.jsf?docId=WO2002082081
p1833
aVhttps://patentscope.wipo.int/search/en/detail.jsf?docId=WO2002082656
p1834
aVhttps://patentscope.wipo.int/search/en/detail.jsf?docId=WO2002087032
p1835
aVhttps://patentscope.wipo.int/search/en/detail.jsf?docId=WO2002084031
p1836
aVhttps://patentscope.wipo.int/search/en/detail.jsf?docId=WO2002089367
p1837
aVhttps://patentscope.wipo.int/search/en/detail.jsf?docId=WO2002083426
p1838
aVhttps://patentscope.wipo.int/search/en/detail.jsf?docId=WO2002097829
p1839
aVhttps://patentscope.wipo.int/search/en/detail.jsf?docId=WO2002092734
p1840
aVhttps://patentscope.wipo.int/search/en/detail.jsf?docId=WO2002085476
p1841
aVhttps://patentscope.wipo.int/search/en/detail.jsf?docId=WO2003001368
p1842
aVhttps://patentscope.wipo.int/search/en/detail.jsf?docId=WO2002087358
p1843
aVhttps://patentscope.wipo.int/search/en/detail.jsf?docId=WO2003036332
p1844
aVhttps://patentscope.wipo.int/search/en/detail.jsf?docId=WO2002085146
p1845
aVhttps://patentscope.wipo.int/search/en/detail.jsf?docId=WO2002090247
p1846
aVhttps://patentscope.wipo.int/search/en/detail.jsf?docId=WO2002089525
p1847
aVhttps://patentscope.wipo.int/search/en/detail.jsf?docId=WO2002090727
p1848
aVhttps://patentscope.wipo.int/search/en/detail.jsf?docId=WO2002088832
p1849
aVhttps://patentscope.wipo.int/search/en/detail.jsf?docId=WO2002087703
p1850
aVhttps://patentscope.wipo.int/search/en/detail.jsf?docId=WO2002088897
p1851
aVhttps://patentscope.wipo.int/search/en/detail.jsf?docId=WO2002088629
p1852
aVhttps://patentscope.wipo.int/search/en/detail.jsf?docId=WO2002090592
p1853
aVhttps://patentscope.wipo.int/search/en/detail.jsf?docId=WO2002091530
p1854
aVhttps://patentscope.wipo.int/search/en/detail.jsf?docId=WO2003050973
p1855
aVhttps://patentscope.wipo.int/search/en/detail.jsf?docId=WO2002096058
p1856
aVhttps://patentscope.wipo.int/search/en/detail.jsf?docId=WO2002092345
p1857
aVhttps://patentscope.wipo.int/search/en/detail.jsf?docId=WO2002089739
p1858
aVhttps://patentscope.wipo.int/search/en/detail.jsf?docId=WO2002090460
p1859
aVhttps://patentscope.wipo.int/search/en/detail.jsf?docId=WO2002092674
p1860
aVhttps://patentscope.wipo.int/search/en/detail.jsf?docId=WO2002091130
p1861
aVhttps://patentscope.wipo.int/search/en/detail.jsf?docId=WO2003008859
p1862
aVhttps://patentscope.wipo.int/search/en/detail.jsf?docId=WO2002092059
p1863
aVhttps://patentscope.wipo.int/search/en/detail.jsf?docId=WO2002093771
p1864
aVhttps://patentscope.wipo.int/search/en/detail.jsf?docId=WO2002094778
p1865
aVhttps://patentscope.wipo.int/search/en/detail.jsf?docId=WO2002094779
p1866
aVhttps://patentscope.wipo.int/search/en/detail.jsf?docId=WO2003000460
p1867
aVhttps://patentscope.wipo.int/search/en/detail.jsf?docId=WO2003007698
p1868
aVhttps://patentscope.wipo.int/search/en/detail.jsf?docId=WO2003003214
p1869
aVhttps://patentscope.wipo.int/search/en/detail.jsf?docId=WO2002100882
p1870
aVhttps://patentscope.wipo.int/search/en/detail.jsf?docId=WO2002099985
p1871
aVhttps://patentscope.wipo.int/search/en/detail.jsf?docId=WO2003004970
p1872
aVhttps://patentscope.wipo.int/search/en/detail.jsf?docId=WO2003001996
p1873
aVhttps://patentscope.wipo.int/search/en/detail.jsf?docId=WO2003009178
p1874
aVhttps://patentscope.wipo.int/search/en/detail.jsf?docId=WO2003099048
p1875
aVhttps://patentscope.wipo.int/search/en/detail.jsf?docId=WO2004010542
p1876
aVhttps://patentscope.wipo.int/search/en/detail.jsf?docId=WO2003011045
p1877
aVhttps://patentscope.wipo.int/search/en/detail.jsf?docId=WO2003010036
p1878
aVhttps://patentscope.wipo.int/search/en/detail.jsf?docId=WO2003012938
p1879
aVhttps://patentscope.wipo.int/search/en/detail.jsf?docId=WO2003013747
p1880
aVhttps://patentscope.wipo.int/search/en/detail.jsf?docId=WO2003017334
p1881
aVhttps://patentscope.wipo.int/search/en/detail.jsf?docId=WO2003013236
p1882
aVhttps://patentscope.wipo.int/search/en/detail.jsf?docId=WO2003016765
p1883
aVhttps://patentscope.wipo.int/search/en/detail.jsf?docId=WO2003022889
p1884
aVhttps://patentscope.wipo.int/search/en/detail.jsf?docId=WO2003021264
p1885
aVhttps://patentscope.wipo.int/search/en/detail.jsf?docId=WO2003021329
p1886
aVhttps://patentscope.wipo.int/search/en/detail.jsf?docId=WO2003023189
p1887
aVhttps://patentscope.wipo.int/search/en/detail.jsf?docId=WO2003028412
p1888
aVhttps://patentscope.wipo.int/search/en/detail.jsf?docId=WO2003021191
p1889
aVhttps://patentscope.wipo.int/search/en/detail.jsf?docId=WO2003026146
p1890
aVhttps://patentscope.wipo.int/search/en/detail.jsf?docId=WO2003027475
p1891
aVhttps://patentscope.wipo.int/search/en/detail.jsf?docId=WO2003025741
p1892
aVhttps://patentscope.wipo.int/search/en/detail.jsf?docId=WO2003028903
p1893
aVhttps://patentscope.wipo.int/search/en/detail.jsf?docId=WO2003027421
p1894
aVhttps://patentscope.wipo.int/search/en/detail.jsf?docId=WO2003040931
p1895
aVhttps://patentscope.wipo.int/search/en/detail.jsf?docId=WO2004034157
p1896
aVhttps://patentscope.wipo.int/search/en/detail.jsf?docId=WO2003034090
p1897
aVhttps://patentscope.wipo.int/search/en/detail.jsf?docId=WO2003039289
p1898
aVhttps://patentscope.wipo.int/search/en/detail.jsf?docId=WO2003044494
p1899
aVhttps://patentscope.wipo.int/search/en/detail.jsf?docId=WO2003043194
p1900
aVhttps://patentscope.wipo.int/search/en/detail.jsf?docId=WO2003039483
p1901
aVhttps://patentscope.wipo.int/search/en/detail.jsf?docId=WO2003042503
p1902
aVhttps://patentscope.wipo.int/search/en/detail.jsf?docId=WO2003042890
p1903
aVhttps://patentscope.wipo.int/search/en/detail.jsf?docId=WO2003043560
p1904
aVhttps://patentscope.wipo.int/search/en/detail.jsf?docId=WO2003049953
p1905
aVhttps://patentscope.wipo.int/search/en/detail.jsf?docId=WO2003047522
p1906
aVhttps://patentscope.wipo.int/search/en/detail.jsf?docId=WO2003059526
p1907
aVhttps://patentscope.wipo.int/search/en/detail.jsf?docId=WO2003060931
p1908
aVhttps://patentscope.wipo.int/search/en/detail.jsf?docId=WO2003068666
p1909
aVhttps://patentscope.wipo.int/search/en/detail.jsf?docId=WO2003077127
p1910
aVhttps://patentscope.wipo.int/search/en/detail.jsf?docId=WO2003061755
p1911
aVhttps://patentscope.wipo.int/search/en/detail.jsf?docId=WO2003065610
p1912
aVhttps://patentscope.wipo.int/search/en/detail.jsf?docId=WO2003067728
p1913
aVhttps://patentscope.wipo.int/search/en/detail.jsf?docId=WO2003068897
p1914
aVhttps://patentscope.wipo.int/search/en/detail.jsf?docId=WO2003070146
p1915
aVhttps://patentscope.wipo.int/search/en/detail.jsf?docId=WO2003074428
p1916
aVhttps://patentscope.wipo.int/search/en/detail.jsf?docId=WO2003076344
p1917
aVhttps://patentscope.wipo.int/search/en/detail.jsf?docId=WO2003079234
p1918
aVhttps://patentscope.wipo.int/search/en/detail.jsf?docId=WO2003084178
p1919
aVhttps://patentscope.wipo.int/search/en/detail.jsf?docId=WO2003105062
p1920
aVhttps://patentscope.wipo.int/search/en/detail.jsf?docId=WO2003093897
p1921
aVhttps://patentscope.wipo.int/search/en/detail.jsf?docId=WO2003097967
p1922
aVhttps://patentscope.wipo.int/search/en/detail.jsf?docId=WO2003094512
p1923
aVhttps://patentscope.wipo.int/search/en/detail.jsf?docId=0
p1924
aVhttps://patentscope.wipo.int/search/en/detail.jsf?docId=WO2003093752
p1925
aVhttps://patentscope.wipo.int/search/en/detail.jsf?docId=WO2003096156
p1926
aVhttps://patentscope.wipo.int/search/en/detail.jsf?docId=WO2003096119
p1927
aVhttps://patentscope.wipo.int/search/en/detail.jsf?docId=WO2003094871
p1928
aVhttps://patentscope.wipo.int/search/en/detail.jsf?docId=WO2003102768
p1929
aVhttps://patentscope.wipo.int/search/en/detail.jsf?docId=WO2004002150
p1930
aVhttps://patentscope.wipo.int/search/en/detail.jsf?docId=WO2003103823
p1931
aVhttps://patentscope.wipo.int/search/en/detail.jsf?docId=WO2003099977
p1932
aVhttps://patentscope.wipo.int/search/en/detail.jsf?docId=WO2004027542
p1933
aVhttps://patentscope.wipo.int/search/en/detail.jsf?docId=WO2003102272
p1934
aVhttps://patentscope.wipo.int/search/en/detail.jsf?docId=WO2004015017
p1935
aVhttps://patentscope.wipo.int/search/en/detail.jsf?docId=WO2004012102
p1936
aVhttps://patentscope.wipo.int/search/en/detail.jsf?docId=WO2003105725
p1937
aVhttps://patentscope.wipo.int/search/en/detail.jsf?docId=WO2004000703
p1938
aVhttps://patentscope.wipo.int/search/en/detail.jsf?docId=WO2004000414
p1939
aVhttps://patentscope.wipo.int/search/en/detail.jsf?docId=WO2004001703
p1940
aVhttps://patentscope.wipo.int/search/en/detail.jsf?docId=WO2004002394
p1941
aVhttps://patentscope.wipo.int/search/en/detail.jsf?docId=WO2004006156
p1942
aVhttps://patentscope.wipo.int/search/en/detail.jsf?docId=WO2004022433
p1943
aVhttps://patentscope.wipo.int/search/en/detail.jsf?docId=WO2004008231
p1944
aVhttps://patentscope.wipo.int/search/en/detail.jsf?docId=WO2004009779
p1945
aVhttps://patentscope.wipo.int/search/en/detail.jsf?docId=WO2004017543
p1946
aVhttps://patentscope.wipo.int/search/en/detail.jsf?docId=WO2004032820
p1947
aVhttps://patentscope.wipo.int/search/en/detail.jsf?docId=WO2004017478
p1948
aVhttps://patentscope.wipo.int/search/en/detail.jsf?docId=WO2004021045
p1949
aVhttps://patentscope.wipo.int/search/en/detail.jsf?docId=WO2004033310
p1950
aVhttps://patentscope.wipo.int/search/en/detail.jsf?docId=WO2004028660
p1951
aVhttps://patentscope.wipo.int/search/en/detail.jsf?docId=WO2004034487
p1952
aVhttps://patentscope.wipo.int/search/en/detail.jsf?docId=WO2004034089
p1953
aVhttps://patentscope.wipo.int/search/en/detail.jsf?docId=WO2004035597
p1954
aVhttps://patentscope.wipo.int/search/en/detail.jsf?docId=WO2004043803
p1955
aVhttps://patentscope.wipo.int/search/en/detail.jsf?docId=WO2005036074
p1956
aVhttps://patentscope.wipo.int/search/en/detail.jsf?docId=WO2004037602
p1957
aVhttps://patentscope.wipo.int/search/en/detail.jsf?docId=WO2004043917
p1958
aVhttps://patentscope.wipo.int/search/en/detail.jsf?docId=WO2004045597
p1959
aVhttps://patentscope.wipo.int/search/en/detail.jsf?docId=WO2004045910
p1960
aVhttps://patentscope.wipo.int/search/en/detail.jsf?docId=WO2004052175
p1961
aVhttps://patentscope.wipo.int/search/en/detail.jsf?docId=WO2004052637
p1962
aVhttps://patentscope.wipo.int/search/en/detail.jsf?docId=WO2004058164
p1963
aVhttps://patentscope.wipo.int/search/en/detail.jsf?docId=WO2004063195
p1964
aVhttps://patentscope.wipo.int/search/en/detail.jsf?docId=WO2004065213
p1965
aVhttps://patentscope.wipo.int/search/en/detail.jsf?docId=WO2005113141
p1966
aVhttps://patentscope.wipo.int/search/en/detail.jsf?docId=WO2004105963
p1967
aVhttps://patentscope.wipo.int/search/en/detail.jsf?docId=WO2004112894
p1968
aVhttps://patentscope.wipo.int/search/en/detail.jsf?docId=WO2005025409
p1969
aVhttps://patentscope.wipo.int/search/en/detail.jsf?docId=WO2005052762
p1970
aVhttps://patentscope.wipo.int/search/en/detail.jsf?docId=WO2005124271
p1971
aVhttps://patentscope.wipo.int/search/en/detail.jsf?docId=WO2005090444
p1972
aVhttps://patentscope.wipo.int/search/en/detail.jsf?docId=WO2006137847
p1973
aVhttps://patentscope.wipo.int/search/en/detail.jsf?docId=WO2006052697
p1974
aVhttps://patentscope.wipo.int/search/en/detail.jsf?docId=WO2006053026
p1975
aVhttps://patentscope.wipo.int/search/en/detail.jsf?docId=WO2006055365
p1976
aVhttps://patentscope.wipo.int/search/en/detail.jsf?docId=WO2006053307
p1977
aVhttps://patentscope.wipo.int/search/en/detail.jsf?docId=WO2006078530
p1978
aVhttps://patentscope.wipo.int/search/en/detail.jsf?docId=WO2006084148
p1979
aVhttps://patentscope.wipo.int/search/en/detail.jsf?docId=WO2006093943
p1980
aVhttps://patentscope.wipo.int/search/en/detail.jsf?docId=WO2006128081
p1981
aVhttps://patentscope.wipo.int/search/en/detail.jsf?docId=WO2007033371
p1982
aVhttps://patentscope.wipo.int/search/en/detail.jsf?docId=WO2007048094
p1983
aVhttps://patentscope.wipo.int/search/en/detail.jsf?docId=WO2007070737
p1984
aVhttps://patentscope.wipo.int/search/en/detail.jsf?docId=WO2007081732
p1985
aVhttps://patentscope.wipo.int/search/en/detail.jsf?docId=WO2007087420
p1986
aVhttps://patentscope.wipo.int/search/en/detail.jsf?docId=WO2008045562
p1987
aVhttps://patentscope.wipo.int/search/en/detail.jsf?docId=WO2007136977
p1988
aVhttps://patentscope.wipo.int/search/en/detail.jsf?docId=WO2009120408
p1989
aVhttps://patentscope.wipo.int/search/en/detail.jsf?docId=0
p1990
aVhttps://patentscope.wipo.int/search/en/detail.jsf?docId=WO2015134971
p1991
aVhttps://patentscope.wipo.int/search/en/detail.jsf?docId=WO2015142635
p1992
aVhttps://patentscope.wipo.int/search/en/detail.jsf?docId=WO2015153103
p1993
aVhttps://patentscope.wipo.int/search/en/detail.jsf?docId=WO2015142679
p1994
aVhttps://patentscope.wipo.int/search/en/detail.jsf?docId=WO2015160638
p1995
aVhttps://patentscope.wipo.int/search/en/detail.jsf?docId=WO2015160643
p1996
aVhttps://patentscope.wipo.int/search/en/detail.jsf?docId=WO2015157614
p1997
aVhttps://patentscope.wipo.int/search/en/detail.jsf?docId=WO2015157625
p1998
aVhttps://patentscope.wipo.int/search/en/detail.jsf?docId=WO2015171736
p1999
aVhttps://patentscope.wipo.int/search/en/detail.jsf?docId=WO2015172159
p2000
aVhttps://patentscope.wipo.int/search/en/detail.jsf?docId=WO2015175732
p2001
aVhttps://patentscope.wipo.int/search/en/detail.jsf?docId=WO2015175972
p2002
aVhttps://patentscope.wipo.int/search/en/detail.jsf?docId=WO2015183620
p2003
aVhttps://patentscope.wipo.int/search/en/detail.jsf?docId=WO2015179469
p2004
aVhttps://patentscope.wipo.int/search/en/detail.jsf?docId=WO2015183984
p2005
aVhttps://patentscope.wipo.int/search/en/detail.jsf?docId=WO2015184070
p2006
aVhttps://patentscope.wipo.int/search/en/detail.jsf?docId=WO2015168703
p2007
aVhttps://patentscope.wipo.int/search/en/detail.jsf?docId=WO2015188146
p2008
aVhttps://patentscope.wipo.int/search/en/detail.jsf?docId=WO200158545
p2009
aVhttps://patentscope.wipo.int/search/en/detail.jsf?docId=WO200156477
p2010
aVhttps://patentscope.wipo.int/search/en/detail.jsf?docId=WO200158660
p2011
aVhttps://patentscope.wipo.int/search/en/detail.jsf?docId=WO200159236
p2012
aVhttps://patentscope.wipo.int/search/en/detail.jsf?docId=WO200158708
p2013
aVhttps://patentscope.wipo.int/search/en/detail.jsf?docId=WO2002061549
p2014
aVhttps://patentscope.wipo.int/search/en/detail.jsf?docId=WO2004015172
p2015
aVhttps://patentscope.wipo.int/search/en/detail.jsf?docId=WO2007065176
p2016
aVhttps://patentscope.wipo.int/search/en/detail.jsf?docId=WO2008006121
p2017
a.